
test1.elf:     file format elf32-littlenios2
test1.elf
architecture: nios2:r1, flags 0x00000112:
EXEC_P, HAS_SYMS, D_PAGED
start address 0x01000244

Program Header:
    LOAD off    0x00001000 vaddr 0x00000000 paddr 0x00000000 align 2**12
         filesz 0x00000000 memsz 0x00000000 flags r-x
    LOAD off    0x00001020 vaddr 0x01000020 paddr 0x01000020 align 2**12
         filesz 0x00025954 memsz 0x00025b00 flags rwx

Sections:
Idx Name          Size      VMA       LMA       File off  Algn
  0 .entry        00000000  00000000  00000000  00001000  2**5
                  CONTENTS, ALLOC, LOAD, READONLY, CODE
  1 .exceptions   00000224  01000020  01000020  00001020  2**2
                  CONTENTS, ALLOC, LOAD, READONLY, CODE
  2 .text         0001a5e8  01000244  01000244  00001244  2**2
                  CONTENTS, ALLOC, LOAD, READONLY, CODE
  3 .rodata       00009544  0101a82c  0101a82c  0001b82c  2**2
                  CONTENTS, ALLOC, LOAD, READONLY, DATA
  4 .rwdata       00001c04  01023d70  01023d70  00024d70  2**2
                  CONTENTS, ALLOC, LOAD, DATA, SMALL_DATA
  5 .bss          000001ac  01025974  01025974  00026974  2**2
                  ALLOC, SMALL_DATA
  6 .generic_tristate_controller 00000000  00000020  00000020  00026974  2**0
                  CONTENTS
  7 .sdram        00000000  01025b20  01025b20  00026974  2**0
                  CONTENTS
  8 .comment      00000023  00000000  00000000  00026974  2**0
                  CONTENTS, READONLY
  9 .debug_aranges 000010e0  00000000  00000000  00026998  2**3
                  CONTENTS, READONLY, DEBUGGING
 10 .debug_info   0002adec  00000000  00000000  00027a78  2**0
                  CONTENTS, READONLY, DEBUGGING
 11 .debug_abbrev 0000ac79  00000000  00000000  00052864  2**0
                  CONTENTS, READONLY, DEBUGGING
 12 .debug_line   0000e3ac  00000000  00000000  0005d4dd  2**0
                  CONTENTS, READONLY, DEBUGGING
 13 .debug_frame  00003108  00000000  00000000  0006b88c  2**2
                  CONTENTS, READONLY, DEBUGGING
 14 .debug_str    000045d5  00000000  00000000  0006e994  2**0
                  CONTENTS, READONLY, DEBUGGING
 15 .debug_loc    0001ca7d  00000000  00000000  00072f69  2**0
                  CONTENTS, READONLY, DEBUGGING
 16 .debug_alt_sim_info 00000040  00000000  00000000  0008f9e8  2**2
                  CONTENTS, READONLY, DEBUGGING
 17 .debug_ranges 00001bd8  00000000  00000000  0008fa28  2**3
                  CONTENTS, READONLY, DEBUGGING
 18 .thread_model 00000003  00000000  00000000  00095852  2**0
                  CONTENTS, READONLY
 19 .cpu          00000003  00000000  00000000  00095855  2**0
                  CONTENTS, READONLY
 20 .qsys         00000001  00000000  00000000  00095858  2**0
                  CONTENTS, READONLY
 21 .simulation_enabled 00000001  00000000  00000000  00095859  2**0
                  CONTENTS, READONLY
 22 .sysid_hash   00000004  00000000  00000000  0009585a  2**0
                  CONTENTS, READONLY
 23 .sysid_base   00000004  00000000  00000000  0009585e  2**0
                  CONTENTS, READONLY
 24 .sysid_time   00000004  00000000  00000000  00095862  2**0
                  CONTENTS, READONLY
 25 .stderr_dev   00000009  00000000  00000000  00095866  2**0
                  CONTENTS, READONLY
 26 .stdin_dev    00000009  00000000  00000000  0009586f  2**0
                  CONTENTS, READONLY
 27 .stdout_dev   00000009  00000000  00000000  00095878  2**0
                  CONTENTS, READONLY
 28 .sopc_system_name 00000005  00000000  00000000  00095881  2**0
                  CONTENTS, READONLY
 29 .quartus_project_dir 00000042  00000000  00000000  00095886  2**0
                  CONTENTS, READONLY
 30 .jdi          00003751  00000000  00000000  000958c8  2**0
                  CONTENTS, READONLY
 31 .sopcinfo     000a453f  00000000  00000000  00099019  2**0
                  CONTENTS, READONLY
SYMBOL TABLE:
00000000 l    d  .entry	00000000 .entry
01000020 l    d  .exceptions	00000000 .exceptions
01000244 l    d  .text	00000000 .text
0101a82c l    d  .rodata	00000000 .rodata
01023d70 l    d  .rwdata	00000000 .rwdata
01025974 l    d  .bss	00000000 .bss
00000020 l    d  .generic_tristate_controller	00000000 .generic_tristate_controller
01025b20 l    d  .sdram	00000000 .sdram
00000000 l    d  .comment	00000000 .comment
00000000 l    d  .debug_aranges	00000000 .debug_aranges
00000000 l    d  .debug_info	00000000 .debug_info
00000000 l    d  .debug_abbrev	00000000 .debug_abbrev
00000000 l    d  .debug_line	00000000 .debug_line
00000000 l    d  .debug_frame	00000000 .debug_frame
00000000 l    d  .debug_str	00000000 .debug_str
00000000 l    d  .debug_loc	00000000 .debug_loc
00000000 l    d  .debug_alt_sim_info	00000000 .debug_alt_sim_info
00000000 l    d  .debug_ranges	00000000 .debug_ranges
00000000 l    df *ABS*	00000000 ../test1_bsp//obj/HAL/src/crt0.o
01000278 l       .text	00000000 alt_after_alt_main
00000000 l    df *ABS*	00000000 alt_irq_handler.c
00000000 l    df *ABS*	00000000 alt_instruction_exception_entry.c
00000000 l    df *ABS*	00000000 ctrl.c
0101a82c l     O .rodata	00000600 ASCII8_16
0101ae2c l     O .rodata	00001200 ASCII12_24
00000000 l    df *ABS*	00000000 draw.c
0101c06d l     O .rodata	00000600 ASCII8_16
0101c66d l     O .rodata	00001200 ASCII12_24
00000000 l    df *ABS*	00000000 hello_world.c
0101d870 l     O .rodata	00000600 ASCII8_16
0101de70 l     O .rodata	00001200 ASCII12_24
00000000 l    df *ABS*	00000000 i2c.c
00000000 l    df *ABS*	00000000 key.c
0101f0fc l     O .rodata	00000600 ASCII8_16
0101f6fc l     O .rodata	00001200 ASCII12_24
00000000 l    df *ABS*	00000000 lcd.c
0102091c l     O .rodata	00000600 ASCII8_16
01020f1c l     O .rodata	00001200 ASCII12_24
00000000 l    df *ABS*	00000000 touch.c
01022198 l     O .rodata	00000600 ASCII8_16
01022798 l     O .rodata	00001200 ASCII12_24
00000000 l    df *ABS*	00000000 gesf2.c
00000000 l    df *ABS*	00000000 lesf2.c
00000000 l    df *ABS*	00000000 extendsfdf2.c
00000000 l    df *ABS*	00000000 libgcc2.c
00000000 l    df *ABS*	00000000 libgcc2.c
00000000 l    df *ABS*	00000000 printf.c
00000000 l    df *ABS*	00000000 puts.c
00000000 l    df *ABS*	00000000 sprintf.c
00000000 l    df *ABS*	00000000 strlen.c
00000000 l    df *ABS*	00000000 vfprintf.c
01023b5a l     O .rodata	00000010 zeroes.4389
01023b6a l     O .rodata	00000010 blanks.4388
00000000 l    df *ABS*	00000000 vfprintf.c
01023b7a l     O .rodata	00000010 zeroes.4404
0100a034 l     F .text	000000bc __sbprintf
01023b8a l     O .rodata	00000010 blanks.4403
00000000 l    df *ABS*	00000000 wsetup.c
00000000 l    df *ABS*	00000000 dtoa.c
0100a244 l     F .text	00000200 quorem
00000000 l    df *ABS*	00000000 fflush.c
00000000 l    df *ABS*	00000000 findfp.c
0100bd74 l     F .text	00000008 __fp_unlock
0100bd88 l     F .text	0000019c __sinit.part.1
0100bf24 l     F .text	00000008 __fp_lock
00000000 l    df *ABS*	00000000 mallocr.c
00000000 l    df *ABS*	00000000 fvwrite.c
00000000 l    df *ABS*	00000000 fwalk.c
00000000 l    df *ABS*	00000000 impure.c
01023d90 l     O .rwdata	00000424 impure_data
00000000 l    df *ABS*	00000000 locale.c
010241d4 l     O .rwdata	00000020 lc_ctype_charset
010241b4 l     O .rwdata	00000020 lc_message_charset
010241f4 l     O .rwdata	00000038 lconv
00000000 l    df *ABS*	00000000 makebuf.c
00000000 l    df *ABS*	00000000 mallocr.c
00000000 l    df *ABS*	00000000 memchr.c
00000000 l    df *ABS*	00000000 memcpy.c
00000000 l    df *ABS*	00000000 memmove.c
00000000 l    df *ABS*	00000000 memset.c
00000000 l    df *ABS*	00000000 mprec.c
01023bbc l     O .rodata	0000000c p05.2768
00000000 l    df *ABS*	00000000 mallocr.c
00000000 l    df *ABS*	00000000 s_fpclassify.c
00000000 l    df *ABS*	00000000 sbrkr.c
00000000 l    df *ABS*	00000000 stdio.c
00000000 l    df *ABS*	00000000 strcmp.c
00000000 l    df *ABS*	00000000 vfprintf.c
01023cf0 l     O .rodata	00000010 blanks.4332
01023ce0 l     O .rodata	00000010 zeroes.4333
00000000 l    df *ABS*	00000000 vfprintf.c
0101072c l     F .text	000000fc __sprint_r.part.0
01023d10 l     O .rodata	00000010 blanks.4348
01023d00 l     O .rodata	00000010 zeroes.4349
01011cb8 l     F .text	000000bc __sbprintf
00000000 l    df *ABS*	00000000 writer.c
00000000 l    df *ABS*	00000000 closer.c
00000000 l    df *ABS*	00000000 mallocr.c
00000000 l    df *ABS*	00000000 fclose.c
00000000 l    df *ABS*	00000000 fputwc.c
00000000 l    df *ABS*	00000000 fstatr.c
00000000 l    df *ABS*	00000000 int_errno.c
00000000 l    df *ABS*	00000000 isattyr.c
00000000 l    df *ABS*	00000000 lseekr.c
00000000 l    df *ABS*	00000000 readr.c
00000000 l    df *ABS*	00000000 wbuf.c
00000000 l    df *ABS*	00000000 wcrtomb.c
00000000 l    df *ABS*	00000000 wctomb_r.c
00000000 l    df *ABS*	00000000 libgcc2.c
00000000 l    df *ABS*	00000000 libgcc2.c
00000000 l    df *ABS*	00000000 lib2-divmod.c
00000000 l    df *ABS*	00000000 adddf3.c
00000000 l    df *ABS*	00000000 divdf3.c
00000000 l    df *ABS*	00000000 eqdf2.c
00000000 l    df *ABS*	00000000 gedf2.c
00000000 l    df *ABS*	00000000 ledf2.c
00000000 l    df *ABS*	00000000 muldf3.c
00000000 l    df *ABS*	00000000 subdf3.c
00000000 l    df *ABS*	00000000 fixdfsi.c
00000000 l    df *ABS*	00000000 floatsidf.c
00000000 l    df *ABS*	00000000 floatunsidf.c
00000000 l    df *ABS*	00000000 alt_close.c
01015910 l     F .text	0000003c alt_get_errno
00000000 l    df *ABS*	00000000 alt_dev.c
01015a1c l     F .text	0000002c alt_dev_null_write
00000000 l    df *ABS*	00000000 alt_errno.c
00000000 l    df *ABS*	00000000 alt_fstat.c
01015a48 l     F .text	0000003c alt_get_errno
00000000 l    df *ABS*	00000000 alt_irq_register.c
00000000 l    df *ABS*	00000000 alt_irq_vars.c
00000000 l    df *ABS*	00000000 alt_isatty.c
01015cb4 l     F .text	0000003c alt_get_errno
00000000 l    df *ABS*	00000000 alt_lseek.c
01015d94 l     F .text	0000003c alt_get_errno
00000000 l    df *ABS*	00000000 alt_main.c
00000000 l    df *ABS*	00000000 alt_malloc_lock.c
00000000 l    df *ABS*	00000000 alt_read.c
01015f68 l     F .text	0000003c alt_get_errno
00000000 l    df *ABS*	00000000 alt_release_fd.c
00000000 l    df *ABS*	00000000 alt_sbrk.c
01025960 l     O .rwdata	00000004 heap_end
00000000 l    df *ABS*	00000000 alt_usleep.c
00000000 l    df *ABS*	00000000 alt_write.c
010161e4 l     F .text	0000003c alt_get_errno
00000000 l    df *ABS*	00000000 alt_sys_init.c
01016318 l     F .text	00000034 alt_dev_reg
010247dc l     O .rwdata	000000dc generic_tristate_controller
010248b8 l     O .rwdata	00001060 jtag_uart
00000000 l    df *ABS*	00000000 altera_avalon_cfi_flash.c
010163f4 l     F .text	00000034 alt_flash_device_register
00000000 l    df *ABS*	00000000 altera_avalon_cfi_flash_table.c
01017244 l     F .text	00000080 alt_read_16bit_query_entry
00000000 l    df *ABS*	00000000 altera_avalon_jtag_uart_fd.c
00000000 l    df *ABS*	00000000 altera_avalon_jtag_uart_init.c
010182f8 l     F .text	0000020c altera_avalon_jtag_uart_irq
01018504 l     F .text	000000a0 altera_avalon_jtag_uart_timeout
00000000 l    df *ABS*	00000000 altera_avalon_jtag_uart_ioctl.c
00000000 l    df *ABS*	00000000 altera_avalon_jtag_uart_read.c
00000000 l    df *ABS*	00000000 altera_avalon_jtag_uart_write.c
00000000 l    df *ABS*	00000000 altera_avalon_timer_sc.c
01018b3c l     F .text	00000078 alt_avalon_timer_sc_irq
00000000 l    df *ABS*	00000000 alt_alarm_start.c
00000000 l    df *ABS*	00000000 alt_busy_sleep.c
00000000 l    df *ABS*	00000000 alt_dcache_flush.c
00000000 l    df *ABS*	00000000 alt_dev_llist_insert.c
01018eac l     F .text	0000003c alt_get_errno
00000000 l    df *ABS*	00000000 alt_do_ctors.c
00000000 l    df *ABS*	00000000 alt_do_dtors.c
00000000 l    df *ABS*	00000000 alt_flash_dev.c
00000000 l    df *ABS*	00000000 alt_iic.c
00000000 l    df *ABS*	00000000 alt_iic_isr_register.c
00000000 l    df *ABS*	00000000 alt_io_redirect.c
010193a8 l     F .text	000000c4 alt_open_fd
00000000 l    df *ABS*	00000000 alt_open.c
010194e8 l     F .text	0000003c alt_get_errno
01019524 l     F .text	000000c4 alt_file_locked
00000000 l    df *ABS*	00000000 alt_tick.c
00000000 l    df *ABS*	00000000 altera_nios2_gen2_irq.c
00000000 l    df *ABS*	00000000 altera_avalon_cfi_flash_amd.c
01019c98 l     F .text	000000cc alt_write_word_amd
01019b7c l     F .text	0000011c alt_wait_for_command_to_complete_amd
00000000 l    df *ABS*	00000000 altera_avalon_cfi_flash_intel.c
01019f70 l     F .text	0000017c alt_unlock_block_intel
0101a0ec l     F .text	000000d4 alt_write_word_intel
00000000 l    df *ABS*	00000000 alt_find_dev.c
00000000 l    df *ABS*	00000000 alt_find_file.c
00000000 l    df *ABS*	00000000 alt_get_fd.c
00000000 l    df *ABS*	00000000 atexit.c
00000000 l    df *ABS*	00000000 exit.c
00000000 l    df *ABS*	00000000 memcmp.c
00000000 l    df *ABS*	00000000 __atexit.c
00000000 l    df *ABS*	00000000 __call_atexit.c
00000000 l    df *ABS*	00000000 alt_exit.c
010259cc g     O .bss	00000004 alt_instruction_exception_handler
0100e964 g     F .text	00000074 _mprec_log10
0100ea50 g     F .text	0000008c __any_on
01012254 g     F .text	00000054 _isatty_r
01023bc8 g     O .rodata	00000028 __mprec_tinytens
01015ea4 g     F .text	0000007c alt_main
01005a18 g     F .text	000000c0 _puts_r
01016d08 g     F .text	00000040 alt_read_query_entry_32bit
01025a20 g     O .bss	00000100 alt_irq
01000b7c g     F .text	00000050 i2cInit
010122a8 g     F .text	00000060 _lseek_r
01001910 g     F .text	00000054 lcdGetPoint
01025990 g     O .bss	00000004 status_value
01002524 g     F .text	00000414 lcdDrawGrid
010164b8 g     F .text	000002a8 alt_flash_cfi_write
00000000 g       *ABS*	00000000 __alt_mem_generic_tristate_controller
010144a0 g     F .text	00000088 .hidden __eqdf2
01025b20 g       *ABS*	00000000 __alt_heap_start
010059dc g     F .text	0000003c printf
010124c0 g     F .text	0000009c _wcrtomb_r
0100062c g     F .text	000000e8 change
0100f1e0 g     F .text	0000005c __sseek
0100c0c4 g     F .text	00000010 __sinit
01002b18 g     F .text	00000098 lcdDispDecSmall
01012368 g     F .text	00000140 __swbuf_r
0100cb8c g     F .text	0000007c _setlocale_r
01002938 g     F .text	000000f0 lcdDispStringSmall
0100bf2c g     F .text	00000068 __sfmoreglue
01015f44 g     F .text	00000024 __malloc_unlock
01003024 g     F .text	00000508 lcdDispNumtable
0100d85c g     F .text	0000015c memmove
0100c0ac g     F .text	00000018 _cleanup
0100dae0 g     F .text	000000a8 _Balloc
01000714 g     F .text	00000048 figure
01014528 g     F .text	000000dc .hidden __gtdf2
010010c8 g     F .text	00000090 i2cWriteReg
010198e0 g     F .text	00000024 altera_nios2_gen2_irq_init
01016ea0 g     F .text	00000050 alt_write_flash_command_32bit_device_16bit_mode
00000000 g     F .entry	00000000 __reset
010121f8 g     F .text	0000005c _fstat_r
010169ac g     F .text	000002e0 alt_flash_program_block
010259b0 g     O .bss	00000004 errno
0100f15c g     F .text	00000008 __seofread
010054a0 g     F .text	000000f0 touchGetData
0100f4f0 g     F .text	0000123c ___svfiprintf_internal_r
010259bc g     O .bss	00000004 alt_argv
0102d918 g       *ABS*	00000000 _gp
010161b4 g     F .text	00000030 usleep
01000d38 g     F .text	00000088 i2cAck
01002bb0 g     F .text	00000098 lcdDispDecBig
010017ac g     F .text	00000028 lcdReadData
0102465c g     O .rwdata	00000180 alt_fd_list
01003aac g     F .text	000019f4 button_table
0102591c g     O .rwdata	00000004 Num_X
010021c8 g     F .text	00000258 lcdDrawPic
0101a1c0 g     F .text	00000090 alt_find_dev
0100d714 g     F .text	00000148 memcpy
01001964 g     F .text	00000140 lcdRectClear
010018ac g     F .text	00000064 lcdDrawPoint
0100bd7c g     F .text	0000000c _cleanup_r
0101578c g     F .text	000000dc .hidden __floatsidf
0101946c g     F .text	0000007c alt_io_redirect
01014604 g     F .text	000000f4 .hidden __ltdf2
0101a82c g       *ABS*	00000000 __DTOR_END__
01005ad8 g     F .text	00000014 puts
0101a3fc g     F .text	0000009c alt_exception_cause_generated_bad_addr
01000364 g     F .text	000000c4 timerIsr
01000bfc g     F .text	000000b4 i2cStart
0100f040 g     F .text	00000074 __fpclassifyd
0100e8c0 g     F .text	000000a4 __ratio
01011c9c g     F .text	0000001c __vfiprintf_internal
01001414 g     F .text	000000fc keyIsr
010186fc g     F .text	0000021c altera_avalon_jtag_uart_read
010059ac g     F .text	00000030 _printf_r
01013250 g     F .text	00000064 .hidden __udivsi3
01015cf0 g     F .text	000000a4 isatty
010036e0 g     F .text	000000dc lcdDrawRect
01023c18 g     O .rodata	000000c8 __mprec_tens
0100cc08 g     F .text	0000000c __locale_charset
01005770 g     F .text	000000c8 .hidden __lesf2
010259ac g     O .bss	00000004 __malloc_top_pad
01025934 g     O .rwdata	00000004 __mb_cur_max
0100cc38 g     F .text	0000000c _localeconv_r
010017d4 g     F .text	000000d8 lcdSetCursor
0100deec g     F .text	0000003c __i2b
0100c548 g     F .text	000004bc __sfvwrite_r
0100f0b4 g     F .text	00000054 _sbrk_r
01019d64 g     F .text	00000080 alt_program_intel
01012308 g     F .text	00000060 _read_r
01018e84 g     F .text	00000028 alt_dcache_flush
01025954 g     O .rwdata	00000004 alt_max_fd
01016c8c g     F .text	0000003c alt_read_query_entry_8bit
01011eec g     F .text	000000f0 _fclose_r
010007b4 g     F .text	00000034 figure_init
01019de4 g     F .text	0000018c alt_erase_block_intel
0100bd44 g     F .text	00000030 fflush
01001158 g     F .text	000000cc i2cWriteMulti
010259a8 g     O .bss	00000004 __malloc_max_sbrked_mem
01015b34 g     F .text	00000180 alt_irq_register
01001b08 g     F .text	00000238 lcdDrawVerLine
01005838 g     F .text	00000110 .hidden __extendsfdf2
01025978 g     O .bss	00000004 bit_pointer
0101330c g     F .text	000008ac .hidden __adddf3
01025984 g     O .bss	00000004 model
0100e668 g     F .text	0000010c __b2d
01012c20 g     F .text	00000538 .hidden __umoddi3
01015dd0 g     F .text	000000d4 lseek
010012c8 g     F .text	000000f4 i2cReadMulti
01002eec g     F .text	00000138 DisplayPic
0102592c g     O .rwdata	00000004 _global_impure_ptr
0100eadc g     F .text	00000564 _realloc_r
01025b20 g       *ABS*	00000000 __bss_end
010192b8 g     F .text	000000f0 alt_iic_isr_register
010197d8 g     F .text	00000108 alt_tick
010126a8 g     F .text	00000578 .hidden __udivdi3
01012154 g     F .text	00000024 _fputwc_r
01023bf0 g     O .rodata	00000028 __mprec_bigtens
0100dcd0 g     F .text	00000104 __s2b
01015868 g     F .text	000000a8 .hidden __floatunsidf
01000bcc g     F .text	00000030 i2cDelay
0100e3a8 g     F .text	00000060 __mcmp
01000cb0 g     F .text	00000088 i2cStop
01005590 g     F .text	000000f4 touchGetRaw
0100c0e4 g     F .text	00000018 __fp_lock_all
0101926c g     F .text	0000004c alt_ic_irq_enabled
0101973c g     F .text	0000009c alt_alarm_stop
01002c48 g     F .text	000000ac lcdDispFloatSmall
01000dc0 g     F .text	00000088 i2cNoAck
010259b4 g     O .bss	00000004 alt_irq_active
010000fc g     F .exceptions	000000d4 alt_irq_handler
01024634 g     O .rwdata	00000028 alt_dev_null
010171a8 g     F .text	0000009c alt_set_flash_algorithm_func
01023d70 g     O .rwdata	00000010 top
0100ddd4 g     F .text	00000068 __hi0bits
01023d80 g     O .rwdata	00000010 local
0101570c g     F .text	00000080 .hidden __fixdfsi
01016d48 g     F .text	00000044 alt_write_flash_command_8bit_device_8bit_mode
0100383c g     F .text	00000058 touchIrqInit
0102594c g     O .rwdata	00000008 alt_dev_list
01016220 g     F .text	000000f8 write
01000428 g     F .text	00000180 partition
010056b4 g     F .text	000000bc .hidden __gtsf2
01015a84 g     F .text	000000b0 fstat
0100075c g     F .text	00000058 clear
01014604 g     F .text	000000f4 .hidden __ledf2
01017ffc g     F .text	000000d8 alt_check_primary_table
0100e120 g     F .text	00000140 __pow5mult
01010840 g     F .text	0000145c ___vfiprintf_internal_r
010259a0 g     O .bss	00000004 __nlocale_changed
010132b4 g     F .text	00000058 .hidden __umodsi3
010167ec g     F .text	00000064 alt_flash_cfi_read
01016f40 g     F .text	00000038 alt_write_native_8bit
01025b20 g       *ABS*	00000000 end
01016d8c g     F .text	00000078 alt_write_flash_command_16bit_device_8bit_mode
0102597c g     O .bss	00000004 mode
010172c4 g     F .text	000005c8 alt_read_cfi_table
01018238 g     F .text	000000c0 altera_avalon_jtag_uart_init
010001d0 g     F .exceptions	00000074 alt_instruction_exception_entry
01001f74 g     F .text	00000254 lcdDrawLine
0101a82c g       *ABS*	00000000 __CTOR_LIST__
01800000 g       *ABS*	00000000 __alt_stack_pointer
01018bb4 g     F .text	0000007c alt_avalon_timer_sc_init
01005948 g     F .text	00000064 .hidden __clzsi2
01018918 g     F .text	00000224 altera_avalon_jtag_uart_write
01016428 g     F .text	00000090 alt_flash_cfi_init
0100c0d4 g     F .text	00000004 __sfp_lock_acquire
0100d630 g     F .text	000000e4 memchr
01007e20 g     F .text	000021f8 ___vfprintf_internal_r
01005aec g     F .text	00000058 _sprintf_r
0100c238 g     F .text	00000310 _free_r
0100cc14 g     F .text	00000010 __locale_mb_cur_max
01001510 g     F .text	0000022c lcdInit
0101a678 g     F .text	00000180 __call_exitprocs
0102599c g     O .bss	00000004 __mlocale_changed
01000fec g     F .text	000000dc i2cReadByte
010005a8 g     F .text	00000084 quicksort
01025938 g     O .rwdata	00000004 __malloc_sbrk_base
01000244 g     F .text	00000038 _start
010259c4 g     O .bss	00000004 _alt_tick_rate
0100e260 g     F .text	00000148 __lshift
010259c8 g     O .bss	00000004 _alt_nticks
01015fa4 g     F .text	000000fc read
01016384 g     F .text	00000070 alt_sys_init
0100f320 g     F .text	000001d0 __ssprint_r
0101a560 g     F .text	00000118 __register_exitproc
01016cc8 g     F .text	00000040 alt_read_query_entry_16bit
0100df28 g     F .text	000001f8 __multiply
010185a4 g     F .text	00000068 altera_avalon_jtag_uart_close
010259f8 g     O .bss	00000028 __malloc_current_mallinfo
01016fe4 g     F .text	000001c4 alt_set_flash_width_func
0100e774 g     F .text	0000014c __d2b
010002fc g     F .text	00000020 ctrlInit
010013bc g     F .text	00000058 keyInit
010180d4 g     F .text	00000060 altera_avalon_jtag_uart_read_fd
0100031c g     F .text	00000048 timerInit
0101a358 g     F .text	000000a4 alt_get_fd
01018d5c g     F .text	00000128 alt_busy_sleep
01011dd4 g     F .text	00000054 _close_r
0101996c g     F .text	00000210 alt_erase_block_amd
01025918 g     O .rwdata	00000001 LINEMODE
0101a4e4 g     F .text	0000007c memcmp
01018194 g     F .text	00000050 altera_avalon_jtag_uart_close_fd
01025b20 g       *ABS*	00000000 __alt_stack_base
010181e4 g     F .text	00000054 altera_avalon_jtag_uart_ioctl_fd
0100a0f0 g     F .text	00000154 __swsetup_r
0101788c g     F .text	00000770 alt_read_cfi_width
01013bb8 g     F .text	000008e8 .hidden __divdf3
0100bf94 g     F .text	00000118 __sfp
0100e9d8 g     F .text	00000078 __copybits
01001774 g     F .text	00000038 lcdWriteData
0102422c g     O .rwdata	00000408 __malloc_av_
0100c0e0 g     F .text	00000004 __sinit_lock_release
010146f8 g     F .text	00000718 .hidden __muldf3
0100f108 g     F .text	00000054 __sread
0101a250 g     F .text	00000108 alt_find_file
01018ee8 g     F .text	000000a4 alt_dev_llist_insert
01015f20 g     F .text	00000024 __malloc_lock
01016104 g     F .text	000000b0 sbrk
01005c48 g     F .text	000021d8 ___svfprintf_internal_r
0102598c g     O .bss	00000001 TouchValidFlag
0100bce8 g     F .text	0000005c _fflush_r
01011e28 g     F .text	000000c4 _calloc_r
01025964 g     O .rwdata	00000008 alt_flash_dev_list
01016e54 g     F .text	0000004c alt_write_flash_command_16bit_device_16bit_mode
01025974 g       *ABS*	00000000 __bss_start
01001224 g     F .text	000000a4 i2cReadReg
0100d9b8 g     F .text	00000128 memset
010007e8 g     F .text	00000070 main
010259c0 g     O .bss	00000004 alt_envp
010259a4 g     O .bss	00000004 __malloc_max_total_mem
01018134 g     F .text	00000060 altera_avalon_jtag_uart_write_fd
010124a8 g     F .text	00000018 __swbuf
01005770 g     F .text	000000c8 .hidden __ltsf2
0100f23c g     F .text	00000008 __sclose
01800000 g       *ABS*	00000000 __alt_heap_limit
01011fdc g     F .text	00000014 fclose
0100a444 g     F .text	00001688 _dtoa_r
0100ce24 g     F .text	0000080c _malloc_r
0101261c g     F .text	00000030 __ascii_wctomb
01025958 g     O .rwdata	00000004 alt_errno
01025920 g     O .rwdata	00000004 Num_Y
01016ef0 g     F .text	00000050 alt_write_flash_command_32bit_device_32bit_mode
01025925 g     O .rwdata	00000005 tpid
01000e48 g     F .text	000000c4 i2cWaitAck
0100ca04 g     F .text	000000c4 _fwalk
01016850 g     F .text	0000015c alt_write_value_to_flash
01016f78 g     F .text	00000038 alt_write_native_16bit
01013158 g     F .text	00000084 .hidden __divsi3
0100c114 g     F .text	00000124 _malloc_trim_r
01025924 g     O .rwdata	00000001 TouchValue
0101a82c g       *ABS*	00000000 __CTOR_END__
01000f0c g     F .text	000000e0 i2cSendByte
01025988 g     O .bss	00000004 pause1
0100f244 g     F .text	000000dc strcmp
0101a82c g       *ABS*	00000000 __DTOR_LIST__
010144a0 g     F .text	00000088 .hidden __nedf2
0101634c g     F .text	00000038 alt_irq_init
010160a0 g     F .text	00000064 alt_release_fd
01005b44 g     F .text	0000006c sprintf
01023a11 g     O .rodata	00000100 .hidden __clz_tab
01025998 g     O .bss	00000004 _PathLocale
0101a498 g     F .text	00000014 atexit
010056b4 g     F .text	000000bc .hidden __gesf2
01011d74 g     F .text	00000060 _write_r
0100cc44 g     F .text	00000018 setlocale
010037bc g     F .text	00000080 touchInit
01002cf4 g     F .text	000001f8 lcdDispFloatBig
01025930 g     O .rwdata	00000004 _impure_ptr
010259b8 g     O .bss	00000004 alt_argc
0100bacc g     F .text	0000021c __sflush_r
01025974 g     O .bss	00000001 HLPEN
01018fec g     F .text	00000060 _do_dtors
0100cc30 g     F .text	00000008 __locale_cjk_lang
0100352c g     F .text	000001b4 lcddrawsqur
01001aa4 g     F .text	00000064 lcdSetLine
01000020 g       .exceptions	00000000 alt_irq_entry
01025919 g     O .rwdata	00000001 CYCLE
01005684 g     F .text	00000030 touchGetGesture
0100e604 g     F .text	00000064 __ulp
0100c0fc g     F .text	00000018 __fp_unlock_all
01025944 g     O .rwdata	00000008 alt_fs_list
01016e04 g     F .text	00000050 alt_write_flash_command_32bit_device_8bit_mode
0100cc5c g     F .text	0000000c localeconv
01019108 g     F .text	00000050 alt_ic_isr_register
01025974 g       *ABS*	00000000 _edata
01025b20 g       *ABS*	00000000 _end
0101904c g     F .text	00000068 alt_flash_open_dev
0100027c g     F .text	00000080 deviceInit
01011ff0 g     F .text	00000164 __fputwc
0101860c g     F .text	000000f0 altera_avalon_jtag_uart_ioctl
0102591a g     O .rwdata	00000001 DUTY
010191e0 g     F .text	0000008c alt_ic_irq_disable
0100f164 g     F .text	0000007c __swrite
0102593c g     O .rwdata	00000004 __malloc_trim_threshold
0100cc24 g     F .text	0000000c __locale_msgcharset
0101a4ac g     F .text	00000038 exit
0100cac8 g     F .text	000000c4 _fwalk_reent
0100e408 g     F .text	000001fc __mdiff
010190b4 g     F .text	00000054 alt_flash_close_dev
01000858 g     F .text	00000324 dis_init
01002420 g     F .text	00000104 lcdDrawRectan
010131dc g     F .text	00000074 .hidden __modsi3
010259d0 g     O .bss	00000028 bit_array
01800000 g       *ABS*	00000000 __alt_data_end
01000020 g     F .exceptions	00000000 alt_exception
0100c0d8 g     F .text	00000004 __sfp_lock_release
01000000 g       *ABS*	00000000 __alt_mem_sdram
01003a44 g     F .text	00000068 touchIsr
0101a7f8 g     F .text	00000034 _exit
01018c30 g     F .text	0000012c alt_alarm_start
0100cc68 g     F .text	000001bc __smakebuf_r
01016fb0 g     F .text	00000034 alt_write_native_32bit
01005bb0 g     F .text	00000098 strlen
01002a28 g     F .text	000000f0 lcdDispStringBig
010195e8 g     F .text	00000154 open
01014528 g     F .text	000000dc .hidden __gedf2
01016760 g     F .text	0000008c alt_flash_cfi_get_info
0100173c g     F .text	00000038 lcdWriteCommand
01025940 g     O .rwdata	00000004 __wctomb
01010828 g     F .text	00000018 __sprint_r
0102595c g     O .rwdata	00000004 alt_priority_mask
01025980 g     O .bss	00000004 Range_w
01019158 g     F .text	00000088 alt_ic_irq_enable
0100a018 g     F .text	0000001c __vfprintf_internal
0101264c g     F .text	0000005c _wctomb_r
01014e10 g     F .text	000008fc .hidden __subdf3
0100de3c g     F .text	000000b0 __lo0bits
0102596c g     O .rwdata	00000008 alt_alarm_list
01018f8c g     F .text	00000060 _do_ctors
0101255c g     F .text	000000c0 wcrtomb
01001d40 g     F .text	00000234 lcdDrawHorLine
01003894 g     F .text	000001b0 touchResponse
0101594c g     F .text	000000d0 close
01019904 g     F .text	00000068 alt_program_amd
01025994 g     O .bss	00000004 bitnum
01012178 g     F .text	00000080 fputwc
0100c0dc g     F .text	00000004 __sinit_lock_acquire
0100dbb0 g     F .text	00000120 __multadd
0100db88 g     F .text	00000028 _Bfree



Disassembly of section .exceptions:

01000020 <alt_exception>:

#else /* ALT_EXCEPTION_STACK disabled */
        /* 
         * Reserve space on normal stack for registers about to be pushed.
         */
        addi  sp, sp, -76
 1000020:	deffed04 	addi	sp,sp,-76
         * documentation for details).
         *
         * Leave a gap in the stack frame at 4(sp) for the muldiv handler to
         * store zero into.
         */
        stw   ra,  0(sp)
 1000024:	dfc00015 	stw	ra,0(sp)
        stw   r1,   8(sp)
 1000028:	d8400215 	stw	at,8(sp)
        stw   r2,  12(sp)
 100002c:	d8800315 	stw	r2,12(sp)
        stw   r3,  16(sp)
 1000030:	d8c00415 	stw	r3,16(sp)
        stw   r4,  20(sp)
 1000034:	d9000515 	stw	r4,20(sp)
        stw   r5,  24(sp)
 1000038:	d9400615 	stw	r5,24(sp)
        stw   r6,  28(sp)
 100003c:	d9800715 	stw	r6,28(sp)
        stw   r7,  32(sp)
 1000040:	d9c00815 	stw	r7,32(sp)
        rdctl r5, estatus   /* Read early to avoid usage stall */
 1000044:	000b307a 	rdctl	r5,estatus
        stw   r8,  36(sp)
 1000048:	da000915 	stw	r8,36(sp)
        stw   r9,  40(sp)
 100004c:	da400a15 	stw	r9,40(sp)
        stw   r10, 44(sp)
 1000050:	da800b15 	stw	r10,44(sp)
        stw   r11, 48(sp)
 1000054:	dac00c15 	stw	r11,48(sp)
        stw   r12, 52(sp)
 1000058:	db000d15 	stw	r12,52(sp)
        stw   r13, 56(sp)
 100005c:	db400e15 	stw	r13,56(sp)
        stw   r14, 60(sp)
 1000060:	db800f15 	stw	r14,60(sp)
        stw   r15, 64(sp)
 1000064:	dbc01015 	stw	r15,64(sp)
        /*
         * ea-4 contains the address of the instruction being executed
         * when the exception occured. For interrupt exceptions, we will
         * will be re-issue the isntruction. Store it in 72(sp)
         */
        stw   r5,  68(sp)  /* estatus */
 1000068:	d9401115 	stw	r5,68(sp)
        addi  r15, ea, -4  /* instruction that caused exception */
 100006c:	ebffff04 	addi	r15,ea,-4
        stw   r15,  72(sp)
 1000070:	dbc01215 	stw	r15,72(sp)
#else
        /*
         * Test to see if the exception was a software exception or caused 
         * by an external interrupt, and vector accordingly.
         */
        rdctl r4, ipending
 1000074:	0009313a 	rdctl	r4,ipending
        andi  r2, r5, 1
 1000078:	2880004c 	andi	r2,r5,1
        beq   r2, zero, .Lnot_irq
 100007c:	10000326 	beq	r2,zero,100008c <alt_exception+0x6c>
        beq   r4, zero, .Lnot_irq
 1000080:	20000226 	beq	r4,zero,100008c <alt_exception+0x6c>
        /*
         * Now that all necessary registers have been preserved, call 
         * alt_irq_handler() to process the interrupts.
         */

        call alt_irq_handler
 1000084:	10000fc0 	call	10000fc <alt_irq_handler>

        .section .exceptions.irqreturn, "xa"

        br    .Lexception_exit
 1000088:	00000706 	br	10000a8 <alt_exception+0x88>
         * upon completion, so we write ea (address of instruction *after*
         * the one where the exception occured) into 72(sp). The actual
         * instruction that caused the exception is written in r2, which these
         * handlers will utilize.
         */
        stw ea, 72(sp) /* EA is PC+4 so will skip over instruction causing exception */
 100008c:	df401215 	stw	ea,72(sp)
.Lunknown_16bit:
        addi.n r4, r4, 2 /* Need PC+2 to skip over instruction causing exception */
        stw r4, 72(sp)

#else /* CDX is not Enabled and all instructions are 32bits */
        ldw r2, -4(ea) /* Instruction value that caused exception */
 1000090:	e8bfff17 	ldw	r2,-4(ea)
         * debugger is present) or go into an infinite loop since the
         * handling behavior is undefined; in that case we will not return here.
         */

        /* Load exception-causing address as first argument (r4) */
        addi   r4, ea, -4
 1000094:	e93fff04 	addi	r4,ea,-4

        /* Call the instruction-exception entry */
        call   alt_instruction_exception_entry
 1000098:	10001d00 	call	10001d0 <alt_instruction_exception_entry>
         * instruction
         *
         * Return code was 0: Skip. The instruction after the exception is
         * already stored in 72(sp).
         */
        bne   r2, r0, .Lexception_exit
 100009c:	1000021e 	bne	r2,zero,10000a8 <alt_exception+0x88>

        /*
         * Otherwise, modify 72(sp) to re-issue the instruction that caused the
         * exception.
         */
        addi  r15, ea, -4  /* instruction that caused exception */
 10000a0:	ebffff04 	addi	r15,ea,-4
        stw   r15,  72(sp)
 10000a4:	dbc01215 	stw	r15,72(sp)
        /* 
         * Restore the saved registers, so that all general purpose registers 
         * have been restored to their state at the time the interrupt occured.
         */

        ldw   r5,  68(sp)
 10000a8:	d9401117 	ldw	r5,68(sp)
        ldw   ea,  72(sp)  /* This becomes the PC once eret is executed */
 10000ac:	df401217 	ldw	ea,72(sp)
        ldw   ra,   0(sp)
 10000b0:	dfc00017 	ldw	ra,0(sp)

        wrctl estatus, r5
 10000b4:	2801707a 	wrctl	estatus,r5

        ldw   r1,   8(sp)
 10000b8:	d8400217 	ldw	at,8(sp)
        ldw   r2,  12(sp)
 10000bc:	d8800317 	ldw	r2,12(sp)
        ldw   r3,  16(sp)
 10000c0:	d8c00417 	ldw	r3,16(sp)
        ldw   r4,  20(sp)
 10000c4:	d9000517 	ldw	r4,20(sp)
        ldw   r5,  24(sp)
 10000c8:	d9400617 	ldw	r5,24(sp)
        ldw   r6,  28(sp)
 10000cc:	d9800717 	ldw	r6,28(sp)
        ldw   r7,  32(sp)
 10000d0:	d9c00817 	ldw	r7,32(sp)

#if defined(ALT_EXCEPTION_STACK) && defined(ALT_STACK_CHECK)
        ldw   et, %gprel(alt_exception_old_stack_limit)(gp)
#endif

        ldw   r8,  36(sp)
 10000d4:	da000917 	ldw	r8,36(sp)
        ldw   r9,  40(sp)
 10000d8:	da400a17 	ldw	r9,40(sp)
        ldw   r10, 44(sp)
 10000dc:	da800b17 	ldw	r10,44(sp)
        ldw   r11, 48(sp)
 10000e0:	dac00c17 	ldw	r11,48(sp)
        ldw   r12, 52(sp)
 10000e4:	db000d17 	ldw	r12,52(sp)
        ldw   r13, 56(sp)
 10000e8:	db400e17 	ldw	r13,56(sp)
        ldw   r14, 60(sp)
 10000ec:	db800f17 	ldw	r14,60(sp)
        ldw   r15, 64(sp)
 10000f0:	dbc01017 	ldw	r15,64(sp)
        stw   et, %gprel(alt_stack_limit_value)(gp)
        stw   zero, %gprel(alt_exception_old_stack_limit)(gp)
#endif /* ALT_STACK_CHECK */
        ldw   sp,  76(sp)
#else /* ALT_EXCEPTION_STACK disabled */
        addi  sp, sp, 76
 10000f4:	dec01304 	addi	sp,sp,76

        /*
         * Return to the interrupted instruction.
         */

        eret
 10000f8:	ef80083a 	eret

010000fc <alt_irq_handler>:
 * instruction is present if the macro ALT_CI_INTERRUPT_VECTOR defined.
 */

void alt_irq_handler (void) __attribute__ ((section (".exceptions")));
void alt_irq_handler (void)
{
 10000fc:	defff904 	addi	sp,sp,-28
 1000100:	dfc00615 	stw	ra,24(sp)
 1000104:	df000515 	stw	fp,20(sp)
 1000108:	df000504 	addi	fp,sp,20
  
  /*
   * Notify the operating system that we are at interrupt level.
   */ 
  
  ALT_OS_INT_ENTER();
 100010c:	0001883a 	nop
#ifndef NIOS2_EIC_PRESENT
static ALT_INLINE alt_u32 ALT_ALWAYS_INLINE alt_irq_pending (void)
{
  alt_u32 active;

  NIOS2_READ_IPENDING (active);
 1000110:	0005313a 	rdctl	r2,ipending
 1000114:	e0bffe15 	stw	r2,-8(fp)

  return active;
 1000118:	e0bffe17 	ldw	r2,-8(fp)
   * Consider the case where the high priority interupt is asserted during
   * the interrupt entry sequence for a lower priority interrupt to see why
   * this is the case.
   */

  active = alt_irq_pending ();
 100011c:	e0bffb15 	stw	r2,-20(fp)

  do
  {
    i = 0;
 1000120:	e03ffd15 	stw	zero,-12(fp)
    mask = 1;
 1000124:	00800044 	movi	r2,1
 1000128:	e0bffc15 	stw	r2,-16(fp)
     * called to clear the interrupt condition.
     */

    do
    {
      if (active & mask)
 100012c:	e0fffb17 	ldw	r3,-20(fp)
 1000130:	e0bffc17 	ldw	r2,-16(fp)
 1000134:	1884703a 	and	r2,r3,r2
 1000138:	10001426 	beq	r2,zero,100018c <alt_irq_handler+0x90>
      { 
#ifdef ALT_ENHANCED_INTERRUPT_API_PRESENT
        alt_irq[i].handler(alt_irq[i].context); 
 100013c:	008040b4 	movhi	r2,258
 1000140:	10968804 	addi	r2,r2,23072
 1000144:	e0fffd17 	ldw	r3,-12(fp)
 1000148:	180690fa 	slli	r3,r3,3
 100014c:	10c5883a 	add	r2,r2,r3
 1000150:	10c00017 	ldw	r3,0(r2)
 1000154:	008040b4 	movhi	r2,258
 1000158:	10968804 	addi	r2,r2,23072
 100015c:	e13ffd17 	ldw	r4,-12(fp)
 1000160:	200890fa 	slli	r4,r4,3
 1000164:	1105883a 	add	r2,r2,r4
 1000168:	10800104 	addi	r2,r2,4
 100016c:	10800017 	ldw	r2,0(r2)
 1000170:	1009883a 	mov	r4,r2
 1000174:	183ee83a 	callr	r3
#else
        alt_irq[i].handler(alt_irq[i].context, i); 
#endif
        break;
 1000178:	0001883a 	nop
#ifndef NIOS2_EIC_PRESENT
static ALT_INLINE alt_u32 ALT_ALWAYS_INLINE alt_irq_pending (void)
{
  alt_u32 active;

  NIOS2_READ_IPENDING (active);
 100017c:	0005313a 	rdctl	r2,ipending
 1000180:	e0bfff15 	stw	r2,-4(fp)

  return active;
 1000184:	e0bfff17 	ldw	r2,-4(fp)
 1000188:	00000706 	br	10001a8 <alt_irq_handler+0xac>
      }
      mask <<= 1;
 100018c:	e0bffc17 	ldw	r2,-16(fp)
 1000190:	1085883a 	add	r2,r2,r2
 1000194:	e0bffc15 	stw	r2,-16(fp)
      i++;
 1000198:	e0bffd17 	ldw	r2,-12(fp)
 100019c:	10800044 	addi	r2,r2,1
 10001a0:	e0bffd15 	stw	r2,-12(fp)

    } while (1);
 10001a4:	003fe106 	br	100012c <__alt_data_end+0xff80012c>

    active = alt_irq_pending ();
 10001a8:	e0bffb15 	stw	r2,-20(fp)
    
  } while (active);
 10001ac:	e0bffb17 	ldw	r2,-20(fp)
 10001b0:	103fdb1e 	bne	r2,zero,1000120 <__alt_data_end+0xff800120>

  /*
   * Notify the operating system that interrupt processing is complete.
   */ 

  ALT_OS_INT_EXIT();
 10001b4:	0001883a 	nop
}
 10001b8:	0001883a 	nop
 10001bc:	e037883a 	mov	sp,fp
 10001c0:	dfc00117 	ldw	ra,4(sp)
 10001c4:	df000017 	ldw	fp,0(sp)
 10001c8:	dec00204 	addi	sp,sp,8
 10001cc:	f800283a 	ret

010001d0 <alt_instruction_exception_entry>:
 * that handler if it has been registered. Absent a handler, it will
 * break break or hang as discussed below.
 */
int 
alt_instruction_exception_entry (alt_u32 exception_pc)
{
 10001d0:	defffb04 	addi	sp,sp,-20
 10001d4:	dfc00415 	stw	ra,16(sp)
 10001d8:	df000315 	stw	fp,12(sp)
 10001dc:	df000304 	addi	fp,sp,12
 10001e0:	e13fff15 	stw	r4,-4(fp)
 * NIOS2_EXCEPTION_CAUSE_NOT_PRESENT. Your handling routine should
 * check the validity of the cause argument before proceeding.
 */
#ifdef NIOS2_HAS_EXTRA_EXCEPTION_INFO
  /* Get exception cause & "badaddr" */
  NIOS2_READ_EXCEPTION(cause);
 10001e4:	000531fa 	rdctl	r2,exception
 10001e8:	e0bffd15 	stw	r2,-12(fp)
  cause = ( (cause & NIOS2_EXCEPTION_REG_CAUSE_MASK) >>
 10001ec:	e0bffd17 	ldw	r2,-12(fp)
 10001f0:	10801f0c 	andi	r2,r2,124
 10001f4:	1004d0ba 	srli	r2,r2,2
 10001f8:	e0bffd15 	stw	r2,-12(fp)
              NIOS2_EXCEPTION_REG_CAUSE_OFST );

  NIOS2_READ_BADADDR(badaddr);
 10001fc:	0005333a 	rdctl	r2,badaddr
 1000200:	e0bffe15 	stw	r2,-8(fp)
#else
  cause = NIOS2_EXCEPTION_CAUSE_NOT_PRESENT;
  badaddr = 0;
#endif /* NIOS2_HAS_EXTRA_EXCEPTION_INFO */

  if(alt_instruction_exception_handler) {
 1000204:	d0a02d17 	ldw	r2,-32588(gp)
 1000208:	10000726 	beq	r2,zero,1000228 <alt_instruction_exception_entry+0x58>
     * Call handler. Its return value indicates whether the exception-causing
     * instruction should be re-issued. The code that called us,
     * alt_eceptions_entry.S, will look at this value and adjust the ea
     * register as necessary
     */
    return alt_instruction_exception_handler(cause, exception_pc, badaddr);
 100020c:	d0a02d17 	ldw	r2,-32588(gp)
 1000210:	e0fffd17 	ldw	r3,-12(fp)
 1000214:	e1bffe17 	ldw	r6,-8(fp)
 1000218:	e17fff17 	ldw	r5,-4(fp)
 100021c:	1809883a 	mov	r4,r3
 1000220:	103ee83a 	callr	r2
 1000224:	00000206 	br	1000230 <alt_instruction_exception_entry+0x60>
   *    (a peripheral which negates its interrupt output before its
   *    interrupt handler has been executed will cause spurious interrupts)
   */
  else {
#ifdef NIOS2_HAS_DEBUG_STUB
    NIOS2_BREAK();
 1000228:	003da03a 	break	0
      ;
#endif /* NIOS2_HAS_DEBUG_STUB */
  }

  /* We should not get here. Remove compiler warning. */
  return NIOS2_EXCEPTION_RETURN_REISSUE_INST;
 100022c:	0005883a 	mov	r2,zero
}
 1000230:	e037883a 	mov	sp,fp
 1000234:	dfc00117 	ldw	ra,4(sp)
 1000238:	df000017 	ldw	fp,0(sp)
 100023c:	dec00204 	addi	sp,sp,8
 1000240:	f800283a 	ret

Disassembly of section .text:

01000244 <_start>:

    /*
     * Now that the caches are initialized, set up the stack pointer and global pointer.
     * The values provided by the linker are assumed to be correctly aligned.
     */
    movhi sp, %hi(__alt_stack_pointer)
 1000244:	06c06034 	movhi	sp,384
    ori sp, sp, %lo(__alt_stack_pointer)
 1000248:	dec00014 	ori	sp,sp,0
    movhi gp, %hi(_gp)
 100024c:	068040b4 	movhi	gp,258
    ori gp, gp, %lo(_gp)
 1000250:	d6b64614 	ori	gp,gp,55576
 */
#ifndef ALT_SIM_OPTIMIZE
    /* Log that the BSS is about to be cleared. */
    ALT_LOG_PUTS(alt_log_msg_bss)

    movhi r2, %hi(__bss_start)
 1000254:	008040b4 	movhi	r2,258
    ori r2, r2, %lo(__bss_start)
 1000258:	10965d14 	ori	r2,r2,22900

    movhi r3, %hi(__bss_end)
 100025c:	00c040b4 	movhi	r3,258
    ori r3, r3, %lo(__bss_end)
 1000260:	18d6c814 	ori	r3,r3,23328

    beq r2, r3, 1f
 1000264:	10c00326 	beq	r2,r3,1000274 <_start+0x30>

0:
    stw zero, (r2)
 1000268:	10000015 	stw	zero,0(r2)
    addi r2, r2, 4
 100026c:	10800104 	addi	r2,r2,4
    bltu r2, r3, 0b
 1000270:	10fffd36 	bltu	r2,r3,1000268 <__alt_data_end+0xff800268>

    /* Log that alt_main is about to be called. */
    ALT_LOG_PUTS(alt_log_msg_alt_main)

    /* Call the C entry point. It should never return. */
    call alt_main
 1000274:	1015ea40 	call	1015ea4 <alt_main>

01000278 <alt_after_alt_main>:

    /* Wait in infinite loop in case alt_main does return. */
alt_after_alt_main:
    br alt_after_alt_main
 1000278:	003fff06 	br	1000278 <__alt_data_end+0xff800278>

0100027c <deviceInit>:
 *      Author: hailiang
 */

#include "ctrl.h"

int deviceInit() {
 100027c:	defffe04 	addi	sp,sp,-8
 1000280:	dfc00115 	stw	ra,4(sp)
 1000284:	df000015 	stw	fp,0(sp)
 1000288:	d839883a 	mov	fp,sp
	if (keyInit() < 0) {
 100028c:	10013bc0 	call	10013bc <keyInit>
 1000290:	1000050e 	bge	r2,zero,10002a8 <deviceInit+0x2c>
		printf("key initial failed\n");
 1000294:	010040b4 	movhi	r4,258
 1000298:	21300b04 	addi	r4,r4,-16340
 100029c:	1005ad80 	call	1005ad8 <puts>
		return -1;
 10002a0:	00bfffc4 	movi	r2,-1
 10002a4:	00001006 	br	10002e8 <deviceInit+0x6c>
	}
	if (touchInit() < 0) {
 10002a8:	10037bc0 	call	10037bc <touchInit>
 10002ac:	1000050e 	bge	r2,zero,10002c4 <deviceInit+0x48>
		printf("touch initial failed\n");
 10002b0:	010040b4 	movhi	r4,258
 10002b4:	21301004 	addi	r4,r4,-16320
 10002b8:	1005ad80 	call	1005ad8 <puts>
		return -1;
 10002bc:	00bfffc4 	movi	r2,-1
 10002c0:	00000906 	br	10002e8 <deviceInit+0x6c>
	}
	if (timerInit() < 0) {
 10002c4:	100031c0 	call	100031c <timerInit>
 10002c8:	1000050e 	bge	r2,zero,10002e0 <deviceInit+0x64>
		printf("timer initial failed\n");
 10002cc:	010040b4 	movhi	r4,258
 10002d0:	21301604 	addi	r4,r4,-16296
 10002d4:	1005ad80 	call	1005ad8 <puts>
		return -1;
 10002d8:	00bfffc4 	movi	r2,-1
 10002dc:	00000206 	br	10002e8 <deviceInit+0x6c>
	}
	lcdInit();
 10002e0:	10015100 	call	1001510 <lcdInit>

	return 0;
 10002e4:	0005883a 	mov	r2,zero
}
 10002e8:	e037883a 	mov	sp,fp
 10002ec:	dfc00117 	ldw	ra,4(sp)
 10002f0:	df000017 	ldw	fp,0(sp)
 10002f4:	dec00204 	addi	sp,sp,8
 10002f8:	f800283a 	ret

010002fc <ctrlInit>:




void ctrlInit() {
 10002fc:	deffff04 	addi	sp,sp,-4
 1000300:	df000015 	stw	fp,0(sp)
 1000304:	d839883a 	mov	fp,sp
//	lcdDispStringBig(50, 250, BLACK, WHITE, "press any key to clear");
//	lcdDispStringBig(10, 280, BLACK, WHITE, "Gesture test:");
//	lcdDrawGrid(350, 50, 8, 10, 40, BLUE);

//	lcdDispStringBig(735,410, BLUE, WHITE,"KEY");
}
 1000308:	0001883a 	nop
 100030c:	e037883a 	mov	sp,fp
 1000310:	df000017 	ldw	fp,0(sp)
 1000314:	dec00104 	addi	sp,sp,4
 1000318:	f800283a 	ret

0100031c <timerInit>:

int timerInit(void) {
 100031c:	defffe04 	addi	sp,sp,-8
 1000320:	dfc00115 	stw	ra,4(sp)
 1000324:	df000015 	stw	fp,0(sp)
 1000328:	d839883a 	mov	fp,sp
	IOWR(TIMER0_BASE, 1, 0x07);
 100032c:	00c001c4 	movi	r3,7
 1000330:	00801034 	movhi	r2,64
 1000334:	10840104 	addi	r2,r2,4100
 1000338:	10c00035 	stwio	r3,0(r2)
	return alt_irq_register(TIMER0_IRQ, NULL, (void*) timerIsr);
 100033c:	01804034 	movhi	r6,256
 1000340:	3180d904 	addi	r6,r6,868
 1000344:	000b883a 	mov	r5,zero
 1000348:	01000084 	movi	r4,2
 100034c:	1015b340 	call	1015b34 <alt_irq_register>
}
 1000350:	e037883a 	mov	sp,fp
 1000354:	dfc00117 	ldw	ra,4(sp)
 1000358:	df000017 	ldw	fp,0(sp)
 100035c:	dec00204 	addi	sp,sp,8
 1000360:	f800283a 	ret

01000364 <timerIsr>:

tcdata top = { .id = 1, .status = TOUCH_NONE, };

void timerIsr(void) {
 1000364:	defffd04 	addi	sp,sp,-12
 1000368:	dfc00215 	stw	ra,8(sp)
 100036c:	df000115 	stw	fp,4(sp)
 1000370:	df000104 	addi	fp,sp,4
	IOWR(TIMER0_BASE, 0, 0);
 1000374:	0007883a 	mov	r3,zero
 1000378:	00801034 	movhi	r2,64
 100037c:	10840004 	addi	r2,r2,4096
 1000380:	10c00035 	stwio	r3,0(r2)

	touchGetData(&top);
 1000384:	010040b4 	movhi	r4,258
 1000388:	210f5c04 	addi	r4,r4,15728
 100038c:	10054a00 	call	10054a0 <touchGetData>
	if (top.status == TOUCH_DOWN) {
 1000390:	008040b4 	movhi	r2,258
 1000394:	108f5c04 	addi	r2,r2,15728
 1000398:	10800017 	ldw	r2,0(r2)
 100039c:	10001c26 	beq	r2,zero,1000410 <timerIsr+0xac>
		// do something
	} else if (top.status == TOUCH_CONTACT) {
 10003a0:	008040b4 	movhi	r2,258
 10003a4:	108f5c04 	addi	r2,r2,15728
 10003a8:	10800017 	ldw	r2,0(r2)
 10003ac:	10800098 	cmpnei	r2,r2,2
 10003b0:	1000171e 	bne	r2,zero,1000410 <timerIsr+0xac>
		lcdDrawLine(top.old.x, top.old.y, top.now.x, top.now.y, RED);
 10003b4:	008040b4 	movhi	r2,258
 10003b8:	108f5c04 	addi	r2,r2,15728
 10003bc:	1080028b 	ldhu	r2,10(r2)
 10003c0:	10ffffcc 	andi	r3,r2,65535
 10003c4:	008040b4 	movhi	r2,258
 10003c8:	108f5c04 	addi	r2,r2,15728
 10003cc:	1080030b 	ldhu	r2,12(r2)
 10003d0:	113fffcc 	andi	r4,r2,65535
 10003d4:	008040b4 	movhi	r2,258
 10003d8:	108f5c04 	addi	r2,r2,15728
 10003dc:	1080018b 	ldhu	r2,6(r2)
 10003e0:	117fffcc 	andi	r5,r2,65535
 10003e4:	008040b4 	movhi	r2,258
 10003e8:	108f5c04 	addi	r2,r2,15728
 10003ec:	1080020b 	ldhu	r2,8(r2)
 10003f0:	11bfffcc 	andi	r6,r2,65535
 10003f4:	00be0014 	movui	r2,63488
 10003f8:	d8800015 	stw	r2,0(sp)
 10003fc:	300f883a 	mov	r7,r6
 1000400:	280d883a 	mov	r6,r5
 1000404:	200b883a 	mov	r5,r4
 1000408:	1809883a 	mov	r4,r3
 100040c:	1001f740 	call	1001f74 <lcdDrawLine>
	} else if (top.status == TOUCH_UP) {
		// do something
	}
}
 1000410:	0001883a 	nop
 1000414:	e037883a 	mov	sp,fp
 1000418:	dfc00117 	ldw	ra,4(sp)
 100041c:	df000017 	ldw	fp,0(sp)
 1000420:	dec00204 	addi	sp,sp,8
 1000424:	f800283a 	ret

01000428 <partition>:


int partition(float array[], int min, int max)
{
 1000428:	defffa04 	addi	sp,sp,-24
 100042c:	dfc00515 	stw	ra,20(sp)
 1000430:	df000415 	stw	fp,16(sp)
 1000434:	df000404 	addi	fp,sp,16
 1000438:	e13ffd15 	stw	r4,-12(fp)
 100043c:	e17ffe15 	stw	r5,-8(fp)
 1000440:	e1bfff15 	stw	r6,-4(fp)
    float p;  p = array[min];
 1000444:	e0bffe17 	ldw	r2,-8(fp)
 1000448:	1085883a 	add	r2,r2,r2
 100044c:	1085883a 	add	r2,r2,r2
 1000450:	1007883a 	mov	r3,r2
 1000454:	e0bffd17 	ldw	r2,-12(fp)
 1000458:	10c5883a 	add	r2,r2,r3
 100045c:	10800017 	ldw	r2,0(r2)
 1000460:	e0bffc15 	stw	r2,-16(fp)
    //int len = max;
    while (min < max)
 1000464:	00003f06 	br	1000564 <partition+0x13c>
    {
        while (array[max] >= p && min < max)
        {
            max--;
 1000468:	e0bfff17 	ldw	r2,-4(fp)
 100046c:	10bfffc4 	addi	r2,r2,-1
 1000470:	e0bfff15 	stw	r2,-4(fp)
{
    float p;  p = array[min];
    //int len = max;
    while (min < max)
    {
        while (array[max] >= p && min < max)
 1000474:	e0bfff17 	ldw	r2,-4(fp)
 1000478:	1085883a 	add	r2,r2,r2
 100047c:	1085883a 	add	r2,r2,r2
 1000480:	1007883a 	mov	r3,r2
 1000484:	e0bffd17 	ldw	r2,-12(fp)
 1000488:	10c5883a 	add	r2,r2,r3
 100048c:	10c00017 	ldw	r3,0(r2)
 1000490:	e17ffc17 	ldw	r5,-16(fp)
 1000494:	1809883a 	mov	r4,r3
 1000498:	10056b40 	call	10056b4 <__gesf2>
 100049c:	10000316 	blt	r2,zero,10004ac <partition+0x84>
 10004a0:	e0fffe17 	ldw	r3,-8(fp)
 10004a4:	e0bfff17 	ldw	r2,-4(fp)
 10004a8:	18bfef16 	blt	r3,r2,1000468 <__alt_data_end+0xff800468>
        {
            max--;
        }
        array[min] = array[max];
 10004ac:	e0bffe17 	ldw	r2,-8(fp)
 10004b0:	1085883a 	add	r2,r2,r2
 10004b4:	1085883a 	add	r2,r2,r2
 10004b8:	1007883a 	mov	r3,r2
 10004bc:	e0bffd17 	ldw	r2,-12(fp)
 10004c0:	10c7883a 	add	r3,r2,r3
 10004c4:	e0bfff17 	ldw	r2,-4(fp)
 10004c8:	1085883a 	add	r2,r2,r2
 10004cc:	1085883a 	add	r2,r2,r2
 10004d0:	1009883a 	mov	r4,r2
 10004d4:	e0bffd17 	ldw	r2,-12(fp)
 10004d8:	1109883a 	add	r4,r2,r4
 10004dc:	20800017 	ldw	r2,0(r4)
 10004e0:	18800015 	stw	r2,0(r3)
        while (array[min] <= p && min < max)
 10004e4:	00000306 	br	10004f4 <partition+0xcc>
        {
            min++;
 10004e8:	e0bffe17 	ldw	r2,-8(fp)
 10004ec:	10800044 	addi	r2,r2,1
 10004f0:	e0bffe15 	stw	r2,-8(fp)
        while (array[max] >= p && min < max)
        {
            max--;
        }
        array[min] = array[max];
        while (array[min] <= p && min < max)
 10004f4:	e0bffe17 	ldw	r2,-8(fp)
 10004f8:	1085883a 	add	r2,r2,r2
 10004fc:	1085883a 	add	r2,r2,r2
 1000500:	1007883a 	mov	r3,r2
 1000504:	e0bffd17 	ldw	r2,-12(fp)
 1000508:	10c5883a 	add	r2,r2,r3
 100050c:	10c00017 	ldw	r3,0(r2)
 1000510:	e17ffc17 	ldw	r5,-16(fp)
 1000514:	1809883a 	mov	r4,r3
 1000518:	10057700 	call	1005770 <__lesf2>
 100051c:	00800316 	blt	zero,r2,100052c <partition+0x104>
 1000520:	e0fffe17 	ldw	r3,-8(fp)
 1000524:	e0bfff17 	ldw	r2,-4(fp)
 1000528:	18bfef16 	blt	r3,r2,10004e8 <__alt_data_end+0xff8004e8>
        {
            min++;
        }
        array[max] = array[min];
 100052c:	e0bfff17 	ldw	r2,-4(fp)
 1000530:	1085883a 	add	r2,r2,r2
 1000534:	1085883a 	add	r2,r2,r2
 1000538:	1007883a 	mov	r3,r2
 100053c:	e0bffd17 	ldw	r2,-12(fp)
 1000540:	10c7883a 	add	r3,r2,r3
 1000544:	e0bffe17 	ldw	r2,-8(fp)
 1000548:	1085883a 	add	r2,r2,r2
 100054c:	1085883a 	add	r2,r2,r2
 1000550:	1009883a 	mov	r4,r2
 1000554:	e0bffd17 	ldw	r2,-12(fp)
 1000558:	1109883a 	add	r4,r2,r4
 100055c:	20800017 	ldw	r2,0(r4)
 1000560:	18800015 	stw	r2,0(r3)

int partition(float array[], int min, int max)
{
    float p;  p = array[min];
    //int len = max;
    while (min < max)
 1000564:	e0fffe17 	ldw	r3,-8(fp)
 1000568:	e0bfff17 	ldw	r2,-4(fp)
 100056c:	18bfc116 	blt	r3,r2,1000474 <__alt_data_end+0xff800474>
        {
            min++;
        }
        array[max] = array[min];
    }
    array[min] = p;
 1000570:	e0bffe17 	ldw	r2,-8(fp)
 1000574:	1085883a 	add	r2,r2,r2
 1000578:	1085883a 	add	r2,r2,r2
 100057c:	1007883a 	mov	r3,r2
 1000580:	e0bffd17 	ldw	r2,-12(fp)
 1000584:	10c5883a 	add	r2,r2,r3
 1000588:	e0fffc17 	ldw	r3,-16(fp)
 100058c:	10c00015 	stw	r3,0(r2)
    //printf("%d\n", min);
    return  min;
 1000590:	e0bffe17 	ldw	r2,-8(fp)
}
 1000594:	e037883a 	mov	sp,fp
 1000598:	dfc00117 	ldw	ra,4(sp)
 100059c:	df000017 	ldw	fp,0(sp)
 10005a0:	dec00204 	addi	sp,sp,8
 10005a4:	f800283a 	ret

010005a8 <quicksort>:

void quicksort(float array[], int min, int max)
{
 10005a8:	defffa04 	addi	sp,sp,-24
 10005ac:	dfc00515 	stw	ra,20(sp)
 10005b0:	df000415 	stw	fp,16(sp)
 10005b4:	df000404 	addi	fp,sp,16
 10005b8:	e13ffd15 	stw	r4,-12(fp)
 10005bc:	e17ffe15 	stw	r5,-8(fp)
 10005c0:	e1bfff15 	stw	r6,-4(fp)
    int p;
    int i;
    p = partition(array, min, max);
 10005c4:	e1bfff17 	ldw	r6,-4(fp)
 10005c8:	e17ffe17 	ldw	r5,-8(fp)
 10005cc:	e13ffd17 	ldw	r4,-12(fp)
 10005d0:	10004280 	call	1000428 <partition>
 10005d4:	e0bffc15 	stw	r2,-16(fp)

    if (min < max)
 10005d8:	e0fffe17 	ldw	r3,-8(fp)
 10005dc:	e0bfff17 	ldw	r2,-4(fp)
 10005e0:	18800c0e 	bge	r3,r2,1000614 <quicksort+0x6c>
    {
        quicksort(array, min, p - 1);
 10005e4:	e0bffc17 	ldw	r2,-16(fp)
 10005e8:	10bfffc4 	addi	r2,r2,-1
 10005ec:	100d883a 	mov	r6,r2
 10005f0:	e17ffe17 	ldw	r5,-8(fp)
 10005f4:	e13ffd17 	ldw	r4,-12(fp)
 10005f8:	10005a80 	call	10005a8 <quicksort>
        quicksort(array, p + 1, max);
 10005fc:	e0bffc17 	ldw	r2,-16(fp)
 1000600:	10800044 	addi	r2,r2,1
 1000604:	e1bfff17 	ldw	r6,-4(fp)
 1000608:	100b883a 	mov	r5,r2
 100060c:	e13ffd17 	ldw	r4,-12(fp)
 1000610:	10005a80 	call	10005a8 <quicksort>
    }
}
 1000614:	0001883a 	nop
 1000618:	e037883a 	mov	sp,fp
 100061c:	dfc00117 	ldw	ra,4(sp)
 1000620:	df000017 	ldw	fp,0(sp)
 1000624:	dec00204 	addi	sp,sp,8
 1000628:	f800283a 	ret

0100062c <change>:
void change(float array[],int n){// 1
 100062c:	defffb04 	addi	sp,sp,-20
 1000630:	df000415 	stw	fp,16(sp)
 1000634:	df000404 	addi	fp,sp,16
 1000638:	e13ffe15 	stw	r4,-8(fp)
 100063c:	e17fff15 	stw	r5,-4(fp)
int i;
float temp;
for(i=0;i<n/2;i++)
 1000640:	e03ffc15 	stw	zero,-16(fp)
 1000644:	00002706 	br	10006e4 <change+0xb8>
{
temp=array[i];
 1000648:	e0bffc17 	ldw	r2,-16(fp)
 100064c:	1085883a 	add	r2,r2,r2
 1000650:	1085883a 	add	r2,r2,r2
 1000654:	1007883a 	mov	r3,r2
 1000658:	e0bffe17 	ldw	r2,-8(fp)
 100065c:	10c5883a 	add	r2,r2,r3
 1000660:	10800017 	ldw	r2,0(r2)
 1000664:	e0bffd15 	stw	r2,-12(fp)
array[i]=array[n-1-i];
 1000668:	e0bffc17 	ldw	r2,-16(fp)
 100066c:	1085883a 	add	r2,r2,r2
 1000670:	1085883a 	add	r2,r2,r2
 1000674:	1007883a 	mov	r3,r2
 1000678:	e0bffe17 	ldw	r2,-8(fp)
 100067c:	10c7883a 	add	r3,r2,r3
 1000680:	e0bfff17 	ldw	r2,-4(fp)
 1000684:	113fffc4 	addi	r4,r2,-1
 1000688:	e0bffc17 	ldw	r2,-16(fp)
 100068c:	2085c83a 	sub	r2,r4,r2
 1000690:	1085883a 	add	r2,r2,r2
 1000694:	1085883a 	add	r2,r2,r2
 1000698:	1009883a 	mov	r4,r2
 100069c:	e0bffe17 	ldw	r2,-8(fp)
 10006a0:	1109883a 	add	r4,r2,r4
 10006a4:	20800017 	ldw	r2,0(r4)
 10006a8:	18800015 	stw	r2,0(r3)
array[n-1-i]=temp;
 10006ac:	e0bfff17 	ldw	r2,-4(fp)
 10006b0:	10ffffc4 	addi	r3,r2,-1
 10006b4:	e0bffc17 	ldw	r2,-16(fp)
 10006b8:	1885c83a 	sub	r2,r3,r2
 10006bc:	1085883a 	add	r2,r2,r2
 10006c0:	1085883a 	add	r2,r2,r2
 10006c4:	1007883a 	mov	r3,r2
 10006c8:	e0bffe17 	ldw	r2,-8(fp)
 10006cc:	10c5883a 	add	r2,r2,r3
 10006d0:	e0fffd17 	ldw	r3,-12(fp)
 10006d4:	10c00015 	stw	r3,0(r2)
    }
}
void change(float array[],int n){// 1
int i;
float temp;
for(i=0;i<n/2;i++)
 10006d8:	e0bffc17 	ldw	r2,-16(fp)
 10006dc:	10800044 	addi	r2,r2,1
 10006e0:	e0bffc15 	stw	r2,-16(fp)
 10006e4:	e0bfff17 	ldw	r2,-4(fp)
 10006e8:	1006d7fa 	srli	r3,r2,31
 10006ec:	1885883a 	add	r2,r3,r2
 10006f0:	1005d07a 	srai	r2,r2,1
 10006f4:	1007883a 	mov	r3,r2
 10006f8:	e0bffc17 	ldw	r2,-16(fp)
 10006fc:	10ffd216 	blt	r2,r3,1000648 <__alt_data_end+0xff800648>
{
temp=array[i];
array[i]=array[n-1-i];
array[n-1-i]=temp;
}
}
 1000700:	0001883a 	nop
 1000704:	e037883a 	mov	sp,fp
 1000708:	df000017 	ldw	fp,0(sp)
 100070c:	dec00104 	addi	sp,sp,4
 1000710:	f800283a 	ret

01000714 <figure>:
 *      Author: huawei
 */
#include "draw.h"

void figure(u8 sel, bool c)
{
 1000714:	defffc04 	addi	sp,sp,-16
 1000718:	dfc00315 	stw	ra,12(sp)
 100071c:	df000215 	stw	fp,8(sp)
 1000720:	df000204 	addi	fp,sp,8
 1000724:	2005883a 	mov	r2,r4
 1000728:	e17fff15 	stw	r5,-4(fp)
 100072c:	e0bffe05 	stb	r2,-8(fp)
	if(c) clear(sel);
 1000730:	e0bfff17 	ldw	r2,-4(fp)
 1000734:	10000326 	beq	r2,zero,1000744 <figure+0x30>
 1000738:	e0bffe03 	ldbu	r2,-8(fp)
 100073c:	1009883a 	mov	r4,r2
 1000740:	100075c0 	call	100075c <clear>
	if(sel & BIT0)
	{
	}
}
 1000744:	0001883a 	nop
 1000748:	e037883a 	mov	sp,fp
 100074c:	dfc00117 	ldw	ra,4(sp)
 1000750:	df000017 	ldw	fp,0(sp)
 1000754:	dec00204 	addi	sp,sp,8
 1000758:	f800283a 	ret

0100075c <clear>:

void clear(u8 sel)
{
 100075c:	defffc04 	addi	sp,sp,-16
 1000760:	dfc00315 	stw	ra,12(sp)
 1000764:	df000215 	stw	fp,8(sp)
 1000768:	df000204 	addi	fp,sp,8
 100076c:	2005883a 	mov	r2,r4
 1000770:	e0bfff05 	stb	r2,-4(fp)
	if(sel & BIT0)
 1000774:	e0bfff03 	ldbu	r2,-4(fp)
 1000778:	1080004c 	andi	r2,r2,1
 100077c:	10000726 	beq	r2,zero,100079c <clear+0x40>
	{
		lcdRectClear(0, 0, HDP, VDP, BACKGROUND);
 1000780:	00bfffd4 	movui	r2,65535
 1000784:	d8800015 	stw	r2,0(sp)
 1000788:	01c077c4 	movi	r7,479
 100078c:	0180c7c4 	movi	r6,799
 1000790:	000b883a 	mov	r5,zero
 1000794:	0009883a 	mov	r4,zero
 1000798:	10019640 	call	1001964 <lcdRectClear>
	}
	if(sel & BIT1)
	{

	}
}
 100079c:	0001883a 	nop
 10007a0:	e037883a 	mov	sp,fp
 10007a4:	dfc00117 	ldw	ra,4(sp)
 10007a8:	df000017 	ldw	fp,0(sp)
 10007ac:	dec00204 	addi	sp,sp,8
 10007b0:	f800283a 	ret

010007b4 <figure_init>:

void figure_init()
{
 10007b4:	defffe04 	addi	sp,sp,-8
 10007b8:	dfc00115 	stw	ra,4(sp)
 10007bc:	df000015 	stw	fp,0(sp)
 10007c0:	d839883a 	mov	fp,sp
	figure(0, true);
 10007c4:	01400044 	movi	r5,1
 10007c8:	0009883a 	mov	r4,zero
 10007cc:	10007140 	call	1000714 <figure>
}
 10007d0:	0001883a 	nop
 10007d4:	e037883a 	mov	sp,fp
 10007d8:	dfc00117 	ldw	ra,4(sp)
 10007dc:	df000017 	ldw	fp,0(sp)
 10007e0:	dec00204 	addi	sp,sp,8
 10007e4:	f800283a 	ret

010007e8 <main>:
double getVdc(u16 AD_value);
void getRin();
void getKw(double fre);
*/

int main() {
 10007e8:	defffd04 	addi	sp,sp,-12
 10007ec:	dfc00215 	stw	ra,8(sp)
 10007f0:	df000115 	stw	fp,4(sp)
 10007f4:	df000104 	addi	fp,sp,4
	if (deviceInit() < 0) {
 10007f8:	100027c0 	call	100027c <deviceInit>
 10007fc:	1000050e 	bge	r2,zero,1000814 <main+0x2c>
		printf("device initial failed\n");
 1000800:	010040b4 	movhi	r4,258
 1000804:	213c1c04 	addi	r4,r4,-3984
 1000808:	1005ad80 	call	1005ad8 <puts>
		return -1;
 100080c:	00bfffc4 	movi	r2,-1
 1000810:	00000c06 	br	1000844 <main+0x5c>
	}
	lcdRectClear(0, 0, 799, 479, WHITE);
 1000814:	00bfffd4 	movui	r2,65535
 1000818:	d8800015 	stw	r2,0(sp)
 100081c:	01c077c4 	movi	r7,479
 1000820:	0180c7c4 	movi	r6,799
 1000824:	000b883a 	mov	r5,zero
 1000828:	0009883a 	mov	r4,zero
 100082c:	10019640 	call	1001964 <lcdRectClear>
	dis_init();
 1000830:	10008580 	call	1000858 <dis_init>
	IOWR(SWITCH_4WIRE_BASE,0,0);

	Troubleshooting = 0;
	stop_flag = 1;
*/
	printf("Finish Initial\n");
 1000834:	010040b4 	movhi	r4,258
 1000838:	213c2204 	addi	r4,r4,-3960
 100083c:	1005ad80 	call	1005ad8 <puts>
					}
				}
			}
		}
		*/
	}
 1000840:	003fff06 	br	1000840 <__alt_data_end+0xff800840>
	return 0;
}
 1000844:	e037883a 	mov	sp,fp
 1000848:	dfc00117 	ldw	ra,4(sp)
 100084c:	df000017 	ldw	fp,0(sp)
 1000850:	dec00204 	addi	sp,sp,8
 1000854:	f800283a 	ret

01000858 <dis_init>:

/*****************************************************************************************************/

void dis_init(){
 1000858:	defffc04 	addi	sp,sp,-16
 100085c:	dfc00315 	stw	ra,12(sp)
 1000860:	df000215 	stw	fp,8(sp)
 1000864:	df000204 	addi	fp,sp,8
	lcdDispNumtable(Num_X, Num_Y);
 1000868:	d0a00117 	ldw	r2,-32764(gp)
 100086c:	d0e00217 	ldw	r3,-32760(gp)
 1000870:	180b883a 	mov	r5,r3
 1000874:	1009883a 	mov	r4,r2
 1000878:	10030240 	call	1003024 <lcdDispNumtable>
	lcdDrawGrid(260, 50, 10, 28, 18, LGRAY);
 100087c:	00b18614 	movui	r2,50712
 1000880:	d8800115 	stw	r2,4(sp)
 1000884:	00800484 	movi	r2,18
 1000888:	d8800015 	stw	r2,0(sp)
 100088c:	01c00704 	movi	r7,28
 1000890:	01800284 	movi	r6,10
 1000894:	01400c84 	movi	r5,50
 1000898:	01004104 	movi	r4,260
 100089c:	10025240 	call	1002524 <lcdDrawGrid>
	lcdDrawRect(260, 40, 764, 230, BLACK);
 10008a0:	d8000015 	stw	zero,0(sp)
 10008a4:	01c03984 	movi	r7,230
 10008a8:	0180bf04 	movi	r6,764
 10008ac:	01400a04 	movi	r5,40
 10008b0:	01004104 	movi	r4,260
 10008b4:	10036e00 	call	10036e0 <lcdDrawRect>
	lcdDispStringSmall(230, 15, BLACK, WHITE, "Normalized_Vpp");
 10008b8:	008040b4 	movhi	r2,258
 10008bc:	10bc2604 	addi	r2,r2,-3944
 10008c0:	d8800015 	stw	r2,0(sp)
 10008c4:	01ffffd4 	movui	r7,65535
 10008c8:	000d883a 	mov	r6,zero
 10008cc:	014003c4 	movi	r5,15
 10008d0:	01003984 	movi	r4,230
 10008d4:	10029380 	call	1002938 <lcdDispStringSmall>
	lcdDispStringSmall(250, 45, BLACK, WHITE, "1");
 10008d8:	008040b4 	movhi	r2,258
 10008dc:	10bc2a04 	addi	r2,r2,-3928
 10008e0:	d8800015 	stw	r2,0(sp)
 10008e4:	01ffffd4 	movui	r7,65535
 10008e8:	000d883a 	mov	r6,zero
 10008ec:	01400b44 	movi	r5,45
 10008f0:	01003e84 	movi	r4,250
 10008f4:	10029380 	call	1002938 <lcdDispStringSmall>

	lcdDrawRect(50, 330, 200, 450, BLACK);
 10008f8:	d8000015 	stw	zero,0(sp)
 10008fc:	01c07084 	movi	r7,450
 1000900:	01803204 	movi	r6,200
 1000904:	01405284 	movi	r5,330
 1000908:	01000c84 	movi	r4,50
 100090c:	10036e00 	call	10036e0 <lcdDrawRect>
	lcdDrawHorLine(370, 50, 200, BLACK);
 1000910:	000f883a 	mov	r7,zero
 1000914:	01803204 	movi	r6,200
 1000918:	01400c84 	movi	r5,50
 100091c:	01005c84 	movi	r4,370
 1000920:	1001d400 	call	1001d40 <lcdDrawHorLine>
	lcdDrawHorLine(410, 50, 200, BLACK);
 1000924:	000f883a 	mov	r7,zero
 1000928:	01803204 	movi	r6,200
 100092c:	01400c84 	movi	r5,50
 1000930:	01006684 	movi	r4,410
 1000934:	1001d400 	call	1001d40 <lcdDrawHorLine>
	lcdDrawVerLine(125, 370, 450, BLACK);
 1000938:	000f883a 	mov	r7,zero
 100093c:	01807084 	movi	r6,450
 1000940:	01405c84 	movi	r5,370
 1000944:	01001f44 	movi	r4,125
 1000948:	1001b080 	call	1001b08 <lcdDrawVerLine>
	lcdDispStringSmall(65, 385, BLACK, WHITE, "F_L/Hz");
 100094c:	008040b4 	movhi	r2,258
 1000950:	10bc2b04 	addi	r2,r2,-3924
 1000954:	d8800015 	stw	r2,0(sp)
 1000958:	01ffffd4 	movui	r7,65535
 100095c:	000d883a 	mov	r6,zero
 1000960:	01406044 	movi	r5,385
 1000964:	01001044 	movi	r4,65
 1000968:	10029380 	call	1002938 <lcdDispStringSmall>
	lcdDispStringSmall(65, 425, BLACK, WHITE, "F_H/Hz");
 100096c:	008040b4 	movhi	r2,258
 1000970:	10bc2d04 	addi	r2,r2,-3916
 1000974:	d8800015 	stw	r2,0(sp)
 1000978:	01ffffd4 	movui	r7,65535
 100097c:	000d883a 	mov	r6,zero
 1000980:	01406a44 	movi	r5,425
 1000984:	01001044 	movi	r4,65
 1000988:	10029380 	call	1002938 <lcdDispStringSmall>

	lcdDrawRect(260, 250, 764, 450, BLACK);
 100098c:	d8000015 	stw	zero,0(sp)
 1000990:	01c07084 	movi	r7,450
 1000994:	0180bf04 	movi	r6,764
 1000998:	01403e84 	movi	r5,250
 100099c:	01004104 	movi	r4,260
 10009a0:	10036e00 	call	10036e0 <lcdDrawRect>
	lcdDrawHorLine(300, 260, 511, BLACK);
 10009a4:	000f883a 	mov	r7,zero
 10009a8:	01807fc4 	movi	r6,511
 10009ac:	01404104 	movi	r5,260
 10009b0:	01004b04 	movi	r4,300
 10009b4:	1001d400 	call	1001d40 <lcdDrawHorLine>
	lcdDrawHorLine(300, 513, 764, BLACK);
 10009b8:	000f883a 	mov	r7,zero
 10009bc:	0180bf04 	movi	r6,764
 10009c0:	01408044 	movi	r5,513
 10009c4:	01004b04 	movi	r4,300
 10009c8:	1001d400 	call	1001d40 <lcdDrawHorLine>
	lcdDrawHorLine(350, 260, 511, BLACK);
 10009cc:	000f883a 	mov	r7,zero
 10009d0:	01807fc4 	movi	r6,511
 10009d4:	01404104 	movi	r5,260
 10009d8:	01005784 	movi	r4,350
 10009dc:	1001d400 	call	1001d40 <lcdDrawHorLine>
	lcdDrawHorLine(400, 260, 511, BLACK);
 10009e0:	000f883a 	mov	r7,zero
 10009e4:	01807fc4 	movi	r6,511
 10009e8:	01404104 	movi	r5,260
 10009ec:	01006404 	movi	r4,400
 10009f0:	1001d400 	call	1001d40 <lcdDrawHorLine>
	lcdDrawVerLine(380, 250, 450, BLACK);
 10009f4:	000f883a 	mov	r7,zero
 10009f8:	01807084 	movi	r6,450
 10009fc:	01403e84 	movi	r5,250
 1000a00:	01005f04 	movi	r4,380
 1000a04:	1001b080 	call	1001b08 <lcdDrawVerLine>
	lcdDrawVerLine(511, 250, 450, BLACK);
 1000a08:	000f883a 	mov	r7,zero
 1000a0c:	01807084 	movi	r6,450
 1000a10:	01403e84 	movi	r5,250
 1000a14:	01007fc4 	movi	r4,511
 1000a18:	1001b080 	call	1001b08 <lcdDrawVerLine>
	lcdDrawVerLine(513, 250, 450, BLACK);
 1000a1c:	000f883a 	mov	r7,zero
 1000a20:	01807084 	movi	r6,450
 1000a24:	01403e84 	movi	r5,250
 1000a28:	01008044 	movi	r4,513
 1000a2c:	1001b080 	call	1001b08 <lcdDrawVerLine>
	lcdDrawVerLine(635, 300, 450, BLACK);
 1000a30:	000f883a 	mov	r7,zero
 1000a34:	01807084 	movi	r6,450
 1000a38:	01404b04 	movi	r5,300
 1000a3c:	01009ec4 	movi	r4,635
 1000a40:	1001b080 	call	1001b08 <lcdDrawVerLine>
	lcdDispStringBig(267, 263, BLACK, WHITE, "R_in");
 1000a44:	008040b4 	movhi	r2,258
 1000a48:	10bc2f04 	addi	r2,r2,-3908
 1000a4c:	d8800015 	stw	r2,0(sp)
 1000a50:	01ffffd4 	movui	r7,65535
 1000a54:	000d883a 	mov	r6,zero
 1000a58:	014041c4 	movi	r5,263
 1000a5c:	010042c4 	movi	r4,267
 1000a60:	1002a280 	call	1002a28 <lcdDispStringBig>
	lcdDispStringBig(267, 313, BLACK, WHITE, "R_out");
 1000a64:	008040b4 	movhi	r2,258
 1000a68:	10bc3104 	addi	r2,r2,-3900
 1000a6c:	d8800015 	stw	r2,0(sp)
 1000a70:	01ffffd4 	movui	r7,65535
 1000a74:	000d883a 	mov	r6,zero
 1000a78:	01404e44 	movi	r5,313
 1000a7c:	010042c4 	movi	r4,267
 1000a80:	1002a280 	call	1002a28 <lcdDispStringBig>
	lcdDispStringBig(267, 363, BLACK, WHITE, "Av");
 1000a84:	008040b4 	movhi	r2,258
 1000a88:	10bc3304 	addi	r2,r2,-3892
 1000a8c:	d8800015 	stw	r2,0(sp)
 1000a90:	01ffffd4 	movui	r7,65535
 1000a94:	000d883a 	mov	r6,zero
 1000a98:	01405ac4 	movi	r5,363
 1000a9c:	010042c4 	movi	r4,267
 1000aa0:	1002a280 	call	1002a28 <lcdDispStringBig>
	lcdDispStringBig(267, 413, BLACK, WHITE, "frecutoff");
 1000aa4:	008040b4 	movhi	r2,258
 1000aa8:	10bc3404 	addi	r2,r2,-3888
 1000aac:	d8800015 	stw	r2,0(sp)
 1000ab0:	01ffffd4 	movui	r7,65535
 1000ab4:	000d883a 	mov	r6,zero
 1000ab8:	01406744 	movi	r5,413
 1000abc:	010042c4 	movi	r4,267
 1000ac0:	1002a280 	call	1002a28 <lcdDispStringBig>

	lcdDispStringBig(458, 263, BLACK, WHITE, "Kohm");
 1000ac4:	008040b4 	movhi	r2,258
 1000ac8:	10bc3704 	addi	r2,r2,-3876
 1000acc:	d8800015 	stw	r2,0(sp)
 1000ad0:	01ffffd4 	movui	r7,65535
 1000ad4:	000d883a 	mov	r6,zero
 1000ad8:	014041c4 	movi	r5,263
 1000adc:	01007284 	movi	r4,458
 1000ae0:	1002a280 	call	1002a28 <lcdDispStringBig>
	lcdDispStringBig(458, 313, BLACK, WHITE, "Kohm");
 1000ae4:	008040b4 	movhi	r2,258
 1000ae8:	10bc3704 	addi	r2,r2,-3876
 1000aec:	d8800015 	stw	r2,0(sp)
 1000af0:	01ffffd4 	movui	r7,65535
 1000af4:	000d883a 	mov	r6,zero
 1000af8:	01404e44 	movi	r5,313
 1000afc:	01007284 	movi	r4,458
 1000b00:	1002a280 	call	1002a28 <lcdDispStringBig>
	lcdDispStringBig(458, 363, BLACK, WHITE, "V/V");
 1000b04:	008040b4 	movhi	r2,258
 1000b08:	10bc3904 	addi	r2,r2,-3868
 1000b0c:	d8800015 	stw	r2,0(sp)
 1000b10:	01ffffd4 	movui	r7,65535
 1000b14:	000d883a 	mov	r6,zero
 1000b18:	01405ac4 	movi	r5,363
 1000b1c:	01007284 	movi	r4,458
 1000b20:	1002a280 	call	1002a28 <lcdDispStringBig>
	lcdDispStringBig(458, 413, BLACK, WHITE, "Hz");
 1000b24:	008040b4 	movhi	r2,258
 1000b28:	10bc3a04 	addi	r2,r2,-3864
 1000b2c:	d8800015 	stw	r2,0(sp)
 1000b30:	01ffffd4 	movui	r7,65535
 1000b34:	000d883a 	mov	r6,zero
 1000b38:	01406744 	movi	r5,413
 1000b3c:	01007284 	movi	r4,458
 1000b40:	1002a280 	call	1002a28 <lcdDispStringBig>

	lcdDispStringBig(550, 263, BLACK, WHITE, "Error Diagnosis");
 1000b44:	008040b4 	movhi	r2,258
 1000b48:	10bc3b04 	addi	r2,r2,-3860
 1000b4c:	d8800015 	stw	r2,0(sp)
 1000b50:	01ffffd4 	movui	r7,65535
 1000b54:	000d883a 	mov	r6,zero
 1000b58:	014041c4 	movi	r5,263
 1000b5c:	01008984 	movi	r4,550
 1000b60:	1002a280 	call	1002a28 <lcdDispStringBig>
}
 1000b64:	0001883a 	nop
 1000b68:	e037883a 	mov	sp,fp
 1000b6c:	dfc00117 	ldw	ra,4(sp)
 1000b70:	df000017 	ldw	fp,0(sp)
 1000b74:	dec00204 	addi	sp,sp,8
 1000b78:	f800283a 	ret

01000b7c <i2cInit>:
 *      Author: hailiang
 */

#include "i2c.h"

void i2cInit(void) {
 1000b7c:	deffff04 	addi	sp,sp,-4
 1000b80:	df000015 	stw	fp,0(sp)
 1000b84:	d839883a 	mov	fp,sp
	SDA_OUT;
 1000b88:	00c00044 	movi	r3,1
 1000b8c:	00801034 	movhi	r2,64
 1000b90:	10843904 	addi	r2,r2,4324
 1000b94:	10c00035 	stwio	r3,0(r2)
	SDA_H;
 1000b98:	00c00044 	movi	r3,1
 1000b9c:	00801034 	movhi	r2,64
 1000ba0:	10843804 	addi	r2,r2,4320
 1000ba4:	10c00035 	stwio	r3,0(r2)
	SCL_H;
 1000ba8:	00c00044 	movi	r3,1
 1000bac:	00801034 	movhi	r2,64
 1000bb0:	10843404 	addi	r2,r2,4304
 1000bb4:	10c00035 	stwio	r3,0(r2)
}
 1000bb8:	0001883a 	nop
 1000bbc:	e037883a 	mov	sp,fp
 1000bc0:	df000017 	ldw	fp,0(sp)
 1000bc4:	dec00104 	addi	sp,sp,4
 1000bc8:	f800283a 	ret

01000bcc <i2cDelay>:

void i2cDelay(void) {
 1000bcc:	defffe04 	addi	sp,sp,-8
 1000bd0:	dfc00115 	stw	ra,4(sp)
 1000bd4:	df000015 	stw	fp,0(sp)
 1000bd8:	d839883a 	mov	fp,sp
	usleep(5);
 1000bdc:	01000144 	movi	r4,5
 1000be0:	10161b40 	call	10161b4 <usleep>
}
 1000be4:	0001883a 	nop
 1000be8:	e037883a 	mov	sp,fp
 1000bec:	dfc00117 	ldw	ra,4(sp)
 1000bf0:	df000017 	ldw	fp,0(sp)
 1000bf4:	dec00204 	addi	sp,sp,8
 1000bf8:	f800283a 	ret

01000bfc <i2cStart>:

bool i2cStart(void) {
 1000bfc:	defffe04 	addi	sp,sp,-8
 1000c00:	dfc00115 	stw	ra,4(sp)
 1000c04:	df000015 	stw	fp,0(sp)
 1000c08:	d839883a 	mov	fp,sp
	SDA_OUT;
 1000c0c:	00c00044 	movi	r3,1
 1000c10:	00801034 	movhi	r2,64
 1000c14:	10843904 	addi	r2,r2,4324
 1000c18:	10c00035 	stwio	r3,0(r2)

	SDA_H;
 1000c1c:	00c00044 	movi	r3,1
 1000c20:	00801034 	movhi	r2,64
 1000c24:	10843804 	addi	r2,r2,4320
 1000c28:	10c00035 	stwio	r3,0(r2)
	SCL_H;
 1000c2c:	00c00044 	movi	r3,1
 1000c30:	00801034 	movhi	r2,64
 1000c34:	10843404 	addi	r2,r2,4304
 1000c38:	10c00035 	stwio	r3,0(r2)
	i2cDelay();
 1000c3c:	1000bcc0 	call	1000bcc <i2cDelay>
	if (!SDA_R) {
 1000c40:	00801034 	movhi	r2,64
 1000c44:	10843804 	addi	r2,r2,4320
 1000c48:	10800037 	ldwio	r2,0(r2)
 1000c4c:	1000021e 	bne	r2,zero,1000c58 <i2cStart+0x5c>
		return false;
 1000c50:	0005883a 	mov	r2,zero
 1000c54:	00001106 	br	1000c9c <i2cStart+0xa0>
	}
	SDA_L;
 1000c58:	0007883a 	mov	r3,zero
 1000c5c:	00801034 	movhi	r2,64
 1000c60:	10843804 	addi	r2,r2,4320
 1000c64:	10c00035 	stwio	r3,0(r2)
	i2cDelay();
 1000c68:	1000bcc0 	call	1000bcc <i2cDelay>

	if (SDA_R) {
 1000c6c:	00801034 	movhi	r2,64
 1000c70:	10843804 	addi	r2,r2,4320
 1000c74:	10800037 	ldwio	r2,0(r2)
 1000c78:	10000226 	beq	r2,zero,1000c84 <i2cStart+0x88>
		return false;
 1000c7c:	0005883a 	mov	r2,zero
 1000c80:	00000606 	br	1000c9c <i2cStart+0xa0>
	}
	SCL_L;
 1000c84:	0007883a 	mov	r3,zero
 1000c88:	00801034 	movhi	r2,64
 1000c8c:	10843404 	addi	r2,r2,4304
 1000c90:	10c00035 	stwio	r3,0(r2)
	i2cDelay();
 1000c94:	1000bcc0 	call	1000bcc <i2cDelay>
	return true;
 1000c98:	00800044 	movi	r2,1
}
 1000c9c:	e037883a 	mov	sp,fp
 1000ca0:	dfc00117 	ldw	ra,4(sp)
 1000ca4:	df000017 	ldw	fp,0(sp)
 1000ca8:	dec00204 	addi	sp,sp,8
 1000cac:	f800283a 	ret

01000cb0 <i2cStop>:

void i2cStop(void) {
 1000cb0:	defffe04 	addi	sp,sp,-8
 1000cb4:	dfc00115 	stw	ra,4(sp)
 1000cb8:	df000015 	stw	fp,0(sp)
 1000cbc:	d839883a 	mov	fp,sp
	SDA_OUT;
 1000cc0:	00c00044 	movi	r3,1
 1000cc4:	00801034 	movhi	r2,64
 1000cc8:	10843904 	addi	r2,r2,4324
 1000ccc:	10c00035 	stwio	r3,0(r2)

	SCL_L;
 1000cd0:	0007883a 	mov	r3,zero
 1000cd4:	00801034 	movhi	r2,64
 1000cd8:	10843404 	addi	r2,r2,4304
 1000cdc:	10c00035 	stwio	r3,0(r2)
	i2cDelay();
 1000ce0:	1000bcc0 	call	1000bcc <i2cDelay>
	SDA_L;
 1000ce4:	0007883a 	mov	r3,zero
 1000ce8:	00801034 	movhi	r2,64
 1000cec:	10843804 	addi	r2,r2,4320
 1000cf0:	10c00035 	stwio	r3,0(r2)
	i2cDelay();
 1000cf4:	1000bcc0 	call	1000bcc <i2cDelay>
	SCL_H;
 1000cf8:	00c00044 	movi	r3,1
 1000cfc:	00801034 	movhi	r2,64
 1000d00:	10843404 	addi	r2,r2,4304
 1000d04:	10c00035 	stwio	r3,0(r2)
	i2cDelay();
 1000d08:	1000bcc0 	call	1000bcc <i2cDelay>
	SDA_H;
 1000d0c:	00c00044 	movi	r3,1
 1000d10:	00801034 	movhi	r2,64
 1000d14:	10843804 	addi	r2,r2,4320
 1000d18:	10c00035 	stwio	r3,0(r2)
	i2cDelay();
 1000d1c:	1000bcc0 	call	1000bcc <i2cDelay>
}
 1000d20:	0001883a 	nop
 1000d24:	e037883a 	mov	sp,fp
 1000d28:	dfc00117 	ldw	ra,4(sp)
 1000d2c:	df000017 	ldw	fp,0(sp)
 1000d30:	dec00204 	addi	sp,sp,8
 1000d34:	f800283a 	ret

01000d38 <i2cAck>:

void i2cAck(void) {
 1000d38:	defffe04 	addi	sp,sp,-8
 1000d3c:	dfc00115 	stw	ra,4(sp)
 1000d40:	df000015 	stw	fp,0(sp)
 1000d44:	d839883a 	mov	fp,sp
	SDA_OUT;
 1000d48:	00c00044 	movi	r3,1
 1000d4c:	00801034 	movhi	r2,64
 1000d50:	10843904 	addi	r2,r2,4324
 1000d54:	10c00035 	stwio	r3,0(r2)

	SCL_L;
 1000d58:	0007883a 	mov	r3,zero
 1000d5c:	00801034 	movhi	r2,64
 1000d60:	10843404 	addi	r2,r2,4304
 1000d64:	10c00035 	stwio	r3,0(r2)
	i2cDelay();
 1000d68:	1000bcc0 	call	1000bcc <i2cDelay>
	SDA_L;
 1000d6c:	0007883a 	mov	r3,zero
 1000d70:	00801034 	movhi	r2,64
 1000d74:	10843804 	addi	r2,r2,4320
 1000d78:	10c00035 	stwio	r3,0(r2)
	i2cDelay();
 1000d7c:	1000bcc0 	call	1000bcc <i2cDelay>
	SCL_H;
 1000d80:	00c00044 	movi	r3,1
 1000d84:	00801034 	movhi	r2,64
 1000d88:	10843404 	addi	r2,r2,4304
 1000d8c:	10c00035 	stwio	r3,0(r2)
	i2cDelay();
 1000d90:	1000bcc0 	call	1000bcc <i2cDelay>
	SCL_L;
 1000d94:	0007883a 	mov	r3,zero
 1000d98:	00801034 	movhi	r2,64
 1000d9c:	10843404 	addi	r2,r2,4304
 1000da0:	10c00035 	stwio	r3,0(r2)
	i2cDelay();
 1000da4:	1000bcc0 	call	1000bcc <i2cDelay>
}
 1000da8:	0001883a 	nop
 1000dac:	e037883a 	mov	sp,fp
 1000db0:	dfc00117 	ldw	ra,4(sp)
 1000db4:	df000017 	ldw	fp,0(sp)
 1000db8:	dec00204 	addi	sp,sp,8
 1000dbc:	f800283a 	ret

01000dc0 <i2cNoAck>:

void i2cNoAck(void) {
 1000dc0:	defffe04 	addi	sp,sp,-8
 1000dc4:	dfc00115 	stw	ra,4(sp)
 1000dc8:	df000015 	stw	fp,0(sp)
 1000dcc:	d839883a 	mov	fp,sp
	SDA_OUT;
 1000dd0:	00c00044 	movi	r3,1
 1000dd4:	00801034 	movhi	r2,64
 1000dd8:	10843904 	addi	r2,r2,4324
 1000ddc:	10c00035 	stwio	r3,0(r2)

	SCL_L;
 1000de0:	0007883a 	mov	r3,zero
 1000de4:	00801034 	movhi	r2,64
 1000de8:	10843404 	addi	r2,r2,4304
 1000dec:	10c00035 	stwio	r3,0(r2)
	i2cDelay();
 1000df0:	1000bcc0 	call	1000bcc <i2cDelay>
	SDA_H;
 1000df4:	00c00044 	movi	r3,1
 1000df8:	00801034 	movhi	r2,64
 1000dfc:	10843804 	addi	r2,r2,4320
 1000e00:	10c00035 	stwio	r3,0(r2)
	i2cDelay();
 1000e04:	1000bcc0 	call	1000bcc <i2cDelay>
	SCL_H;
 1000e08:	00c00044 	movi	r3,1
 1000e0c:	00801034 	movhi	r2,64
 1000e10:	10843404 	addi	r2,r2,4304
 1000e14:	10c00035 	stwio	r3,0(r2)
	i2cDelay();
 1000e18:	1000bcc0 	call	1000bcc <i2cDelay>
	SCL_L;
 1000e1c:	0007883a 	mov	r3,zero
 1000e20:	00801034 	movhi	r2,64
 1000e24:	10843404 	addi	r2,r2,4304
 1000e28:	10c00035 	stwio	r3,0(r2)
	i2cDelay();
 1000e2c:	1000bcc0 	call	1000bcc <i2cDelay>
}
 1000e30:	0001883a 	nop
 1000e34:	e037883a 	mov	sp,fp
 1000e38:	dfc00117 	ldw	ra,4(sp)
 1000e3c:	df000017 	ldw	fp,0(sp)
 1000e40:	dec00204 	addi	sp,sp,8
 1000e44:	f800283a 	ret

01000e48 <i2cWaitAck>:

bool i2cWaitAck(void) {
 1000e48:	defffe04 	addi	sp,sp,-8
 1000e4c:	dfc00115 	stw	ra,4(sp)
 1000e50:	df000015 	stw	fp,0(sp)
 1000e54:	d839883a 	mov	fp,sp
	SDA_OUT;
 1000e58:	00c00044 	movi	r3,1
 1000e5c:	00801034 	movhi	r2,64
 1000e60:	10843904 	addi	r2,r2,4324
 1000e64:	10c00035 	stwio	r3,0(r2)

	SCL_L;
 1000e68:	0007883a 	mov	r3,zero
 1000e6c:	00801034 	movhi	r2,64
 1000e70:	10843404 	addi	r2,r2,4304
 1000e74:	10c00035 	stwio	r3,0(r2)
	i2cDelay();
 1000e78:	1000bcc0 	call	1000bcc <i2cDelay>
	SDA_H;
 1000e7c:	00c00044 	movi	r3,1
 1000e80:	00801034 	movhi	r2,64
 1000e84:	10843804 	addi	r2,r2,4320
 1000e88:	10c00035 	stwio	r3,0(r2)
	i2cDelay();
 1000e8c:	1000bcc0 	call	1000bcc <i2cDelay>
	SCL_H;
 1000e90:	00c00044 	movi	r3,1
 1000e94:	00801034 	movhi	r2,64
 1000e98:	10843404 	addi	r2,r2,4304
 1000e9c:	10c00035 	stwio	r3,0(r2)
	i2cDelay();
 1000ea0:	1000bcc0 	call	1000bcc <i2cDelay>

	SDA_IN;
 1000ea4:	0007883a 	mov	r3,zero
 1000ea8:	00801034 	movhi	r2,64
 1000eac:	10843904 	addi	r2,r2,4324
 1000eb0:	10c00035 	stwio	r3,0(r2)
	if (SDA_R) {
 1000eb4:	00801034 	movhi	r2,64
 1000eb8:	10843804 	addi	r2,r2,4320
 1000ebc:	10800037 	ldwio	r2,0(r2)
 1000ec0:	10000726 	beq	r2,zero,1000ee0 <i2cWaitAck+0x98>
		SCL_L;
 1000ec4:	0007883a 	mov	r3,zero
 1000ec8:	00801034 	movhi	r2,64
 1000ecc:	10843404 	addi	r2,r2,4304
 1000ed0:	10c00035 	stwio	r3,0(r2)
		i2cDelay();
 1000ed4:	1000bcc0 	call	1000bcc <i2cDelay>
		return false;
 1000ed8:	0005883a 	mov	r2,zero
 1000edc:	00000606 	br	1000ef8 <i2cWaitAck+0xb0>
	}
	SCL_L;
 1000ee0:	0007883a 	mov	r3,zero
 1000ee4:	00801034 	movhi	r2,64
 1000ee8:	10843404 	addi	r2,r2,4304
 1000eec:	10c00035 	stwio	r3,0(r2)
	i2cDelay();
 1000ef0:	1000bcc0 	call	1000bcc <i2cDelay>
	return true;
 1000ef4:	00800044 	movi	r2,1
}
 1000ef8:	e037883a 	mov	sp,fp
 1000efc:	dfc00117 	ldw	ra,4(sp)
 1000f00:	df000017 	ldw	fp,0(sp)
 1000f04:	dec00204 	addi	sp,sp,8
 1000f08:	f800283a 	ret

01000f0c <i2cSendByte>:

void i2cSendByte(u8 byte) {
 1000f0c:	defffc04 	addi	sp,sp,-16
 1000f10:	dfc00315 	stw	ra,12(sp)
 1000f14:	df000215 	stw	fp,8(sp)
 1000f18:	df000204 	addi	fp,sp,8
 1000f1c:	2005883a 	mov	r2,r4
 1000f20:	e0bfff05 	stb	r2,-4(fp)
	u8 i = 8;
 1000f24:	00800204 	movi	r2,8
 1000f28:	e0bffe05 	stb	r2,-8(fp)

	SDA_OUT;
 1000f2c:	00c00044 	movi	r3,1
 1000f30:	00801034 	movhi	r2,64
 1000f34:	10843904 	addi	r2,r2,4324
 1000f38:	10c00035 	stwio	r3,0(r2)
	while (i--) {
 1000f3c:	00001c06 	br	1000fb0 <i2cSendByte+0xa4>
		SCL_L;
 1000f40:	0007883a 	mov	r3,zero
 1000f44:	00801034 	movhi	r2,64
 1000f48:	10843404 	addi	r2,r2,4304
 1000f4c:	10c00035 	stwio	r3,0(r2)
		i2cDelay();
 1000f50:	1000bcc0 	call	1000bcc <i2cDelay>
		if (byte & 0x80) {
 1000f54:	e0bfff03 	ldbu	r2,-4(fp)
 1000f58:	10803fcc 	andi	r2,r2,255
 1000f5c:	1080201c 	xori	r2,r2,128
 1000f60:	10bfe004 	addi	r2,r2,-128
 1000f64:	1000050e 	bge	r2,zero,1000f7c <i2cSendByte+0x70>
			SDA_H;
 1000f68:	00c00044 	movi	r3,1
 1000f6c:	00801034 	movhi	r2,64
 1000f70:	10843804 	addi	r2,r2,4320
 1000f74:	10c00035 	stwio	r3,0(r2)
 1000f78:	00000406 	br	1000f8c <i2cSendByte+0x80>
		} else {
			SDA_L;
 1000f7c:	0007883a 	mov	r3,zero
 1000f80:	00801034 	movhi	r2,64
 1000f84:	10843804 	addi	r2,r2,4320
 1000f88:	10c00035 	stwio	r3,0(r2)
		}
		byte <<= 1;
 1000f8c:	e0bfff03 	ldbu	r2,-4(fp)
 1000f90:	1085883a 	add	r2,r2,r2
 1000f94:	e0bfff05 	stb	r2,-4(fp)
		i2cDelay();
 1000f98:	1000bcc0 	call	1000bcc <i2cDelay>
		SCL_H;
 1000f9c:	00c00044 	movi	r3,1
 1000fa0:	00801034 	movhi	r2,64
 1000fa4:	10843404 	addi	r2,r2,4304
 1000fa8:	10c00035 	stwio	r3,0(r2)
		i2cDelay();
 1000fac:	1000bcc0 	call	1000bcc <i2cDelay>

void i2cSendByte(u8 byte) {
	u8 i = 8;

	SDA_OUT;
	while (i--) {
 1000fb0:	e0bffe03 	ldbu	r2,-8(fp)
 1000fb4:	10ffffc4 	addi	r3,r2,-1
 1000fb8:	e0fffe05 	stb	r3,-8(fp)
 1000fbc:	10803fcc 	andi	r2,r2,255
 1000fc0:	103fdf1e 	bne	r2,zero,1000f40 <__alt_data_end+0xff800f40>
		byte <<= 1;
		i2cDelay();
		SCL_H;
		i2cDelay();
	}
	SCL_L;
 1000fc4:	0007883a 	mov	r3,zero
 1000fc8:	00801034 	movhi	r2,64
 1000fcc:	10843404 	addi	r2,r2,4304
 1000fd0:	10c00035 	stwio	r3,0(r2)
}
 1000fd4:	0001883a 	nop
 1000fd8:	e037883a 	mov	sp,fp
 1000fdc:	dfc00117 	ldw	ra,4(sp)
 1000fe0:	df000017 	ldw	fp,0(sp)
 1000fe4:	dec00204 	addi	sp,sp,8
 1000fe8:	f800283a 	ret

01000fec <i2cReadByte>:

u8 i2cReadByte(void) {
 1000fec:	defffd04 	addi	sp,sp,-12
 1000ff0:	dfc00215 	stw	ra,8(sp)
 1000ff4:	df000115 	stw	fp,4(sp)
 1000ff8:	df000104 	addi	fp,sp,4
	u8 i = 8;
 1000ffc:	00800204 	movi	r2,8
 1001000:	e0bfff05 	stb	r2,-4(fp)
	u8 byte = 0;
 1001004:	e03fff45 	stb	zero,-3(fp)

	SDA_OUT;
 1001008:	00c00044 	movi	r3,1
 100100c:	00801034 	movhi	r2,64
 1001010:	10843904 	addi	r2,r2,4324
 1001014:	10c00035 	stwio	r3,0(r2)
	SDA_H;
 1001018:	00c00044 	movi	r3,1
 100101c:	00801034 	movhi	r2,64
 1001020:	10843804 	addi	r2,r2,4320
 1001024:	10c00035 	stwio	r3,0(r2)

	SDA_IN;
 1001028:	0007883a 	mov	r3,zero
 100102c:	00801034 	movhi	r2,64
 1001030:	10843904 	addi	r2,r2,4324
 1001034:	10c00035 	stwio	r3,0(r2)
	while (i--) {
 1001038:	00001406 	br	100108c <i2cReadByte+0xa0>
		byte <<= 1;
 100103c:	e0bfff43 	ldbu	r2,-3(fp)
 1001040:	1085883a 	add	r2,r2,r2
 1001044:	e0bfff45 	stb	r2,-3(fp)
		SCL_L;
 1001048:	0007883a 	mov	r3,zero
 100104c:	00801034 	movhi	r2,64
 1001050:	10843404 	addi	r2,r2,4304
 1001054:	10c00035 	stwio	r3,0(r2)
		i2cDelay();
 1001058:	1000bcc0 	call	1000bcc <i2cDelay>
		SCL_H;
 100105c:	00c00044 	movi	r3,1
 1001060:	00801034 	movhi	r2,64
 1001064:	10843404 	addi	r2,r2,4304
 1001068:	10c00035 	stwio	r3,0(r2)
		i2cDelay();
 100106c:	1000bcc0 	call	1000bcc <i2cDelay>
		if (SDA_R) {
 1001070:	00801034 	movhi	r2,64
 1001074:	10843804 	addi	r2,r2,4320
 1001078:	10800037 	ldwio	r2,0(r2)
 100107c:	10000326 	beq	r2,zero,100108c <i2cReadByte+0xa0>
			byte |= 0x01;
 1001080:	e0bfff43 	ldbu	r2,-3(fp)
 1001084:	10800054 	ori	r2,r2,1
 1001088:	e0bfff45 	stb	r2,-3(fp)

	SDA_OUT;
	SDA_H;

	SDA_IN;
	while (i--) {
 100108c:	e0bfff03 	ldbu	r2,-4(fp)
 1001090:	10ffffc4 	addi	r3,r2,-1
 1001094:	e0ffff05 	stb	r3,-4(fp)
 1001098:	10803fcc 	andi	r2,r2,255
 100109c:	103fe71e 	bne	r2,zero,100103c <__alt_data_end+0xff80103c>
		i2cDelay();
		if (SDA_R) {
			byte |= 0x01;
		}
	}
	SCL_L;
 10010a0:	0007883a 	mov	r3,zero
 10010a4:	00801034 	movhi	r2,64
 10010a8:	10843404 	addi	r2,r2,4304
 10010ac:	10c00035 	stwio	r3,0(r2)
	return byte;
 10010b0:	e0bfff43 	ldbu	r2,-3(fp)
}
 10010b4:	e037883a 	mov	sp,fp
 10010b8:	dfc00117 	ldw	ra,4(sp)
 10010bc:	df000017 	ldw	fp,0(sp)
 10010c0:	dec00204 	addi	sp,sp,8
 10010c4:	f800283a 	ret

010010c8 <i2cWriteReg>:

bool i2cWriteReg(u8 slave, u8 reg, u8 data) {
 10010c8:	defffb04 	addi	sp,sp,-20
 10010cc:	dfc00415 	stw	ra,16(sp)
 10010d0:	df000315 	stw	fp,12(sp)
 10010d4:	df000304 	addi	fp,sp,12
 10010d8:	2807883a 	mov	r3,r5
 10010dc:	3005883a 	mov	r2,r6
 10010e0:	e13ffd05 	stb	r4,-12(fp)
 10010e4:	e0fffe05 	stb	r3,-8(fp)
 10010e8:	e0bfff05 	stb	r2,-4(fp)
	if (!i2cStart())
 10010ec:	1000bfc0 	call	1000bfc <i2cStart>
 10010f0:	1000021e 	bne	r2,zero,10010fc <i2cWriteReg+0x34>
		return false;
 10010f4:	0005883a 	mov	r2,zero
 10010f8:	00001206 	br	1001144 <i2cWriteReg+0x7c>
	i2cSendByte(slave);
 10010fc:	e0bffd03 	ldbu	r2,-12(fp)
 1001100:	1009883a 	mov	r4,r2
 1001104:	1000f0c0 	call	1000f0c <i2cSendByte>
	if (!i2cWaitAck()) {
 1001108:	1000e480 	call	1000e48 <i2cWaitAck>
 100110c:	1000031e 	bne	r2,zero,100111c <i2cWriteReg+0x54>
		i2cStop();
 1001110:	1000cb00 	call	1000cb0 <i2cStop>
		return false;
 1001114:	0005883a 	mov	r2,zero
 1001118:	00000a06 	br	1001144 <i2cWriteReg+0x7c>
	}
	i2cSendByte(reg);
 100111c:	e0bffe03 	ldbu	r2,-8(fp)
 1001120:	1009883a 	mov	r4,r2
 1001124:	1000f0c0 	call	1000f0c <i2cSendByte>
	i2cWaitAck();
 1001128:	1000e480 	call	1000e48 <i2cWaitAck>
	i2cSendByte(data);
 100112c:	e0bfff03 	ldbu	r2,-4(fp)
 1001130:	1009883a 	mov	r4,r2
 1001134:	1000f0c0 	call	1000f0c <i2cSendByte>
	i2cWaitAck();
 1001138:	1000e480 	call	1000e48 <i2cWaitAck>
	i2cStop();
 100113c:	1000cb00 	call	1000cb0 <i2cStop>
	return true;
 1001140:	00800044 	movi	r2,1
}
 1001144:	e037883a 	mov	sp,fp
 1001148:	dfc00117 	ldw	ra,4(sp)
 100114c:	df000017 	ldw	fp,0(sp)
 1001150:	dec00204 	addi	sp,sp,8
 1001154:	f800283a 	ret

01001158 <i2cWriteMulti>:

bool i2cWriteMulti(u8 slave, u8 reg, u8 *buff, u8 cnt) {
 1001158:	defff904 	addi	sp,sp,-28
 100115c:	dfc00615 	stw	ra,24(sp)
 1001160:	df000515 	stw	fp,20(sp)
 1001164:	df000504 	addi	fp,sp,20
 1001168:	2807883a 	mov	r3,r5
 100116c:	e1bffe15 	stw	r6,-8(fp)
 1001170:	3805883a 	mov	r2,r7
 1001174:	e13ffc05 	stb	r4,-16(fp)
 1001178:	e0fffd05 	stb	r3,-12(fp)
 100117c:	e0bfff05 	stb	r2,-4(fp)
	u8 k = 0;
 1001180:	e03ffb05 	stb	zero,-20(fp)
	if (!i2cStart())
 1001184:	1000bfc0 	call	1000bfc <i2cStart>
 1001188:	1000021e 	bne	r2,zero,1001194 <i2cWriteMulti+0x3c>
		return false;
 100118c:	0005883a 	mov	r2,zero
 1001190:	00001f06 	br	1001210 <i2cWriteMulti+0xb8>
	i2cSendByte(slave);
 1001194:	e0bffc03 	ldbu	r2,-16(fp)
 1001198:	1009883a 	mov	r4,r2
 100119c:	1000f0c0 	call	1000f0c <i2cSendByte>
	if (!i2cWaitAck()) {
 10011a0:	1000e480 	call	1000e48 <i2cWaitAck>
 10011a4:	1000031e 	bne	r2,zero,10011b4 <i2cWriteMulti+0x5c>
		i2cStop();
 10011a8:	1000cb00 	call	1000cb0 <i2cStop>
		return false;
 10011ac:	0005883a 	mov	r2,zero
 10011b0:	00001706 	br	1001210 <i2cWriteMulti+0xb8>
	}
	i2cSendByte(reg);
 10011b4:	e0bffd03 	ldbu	r2,-12(fp)
 10011b8:	1009883a 	mov	r4,r2
 10011bc:	1000f0c0 	call	1000f0c <i2cSendByte>
	i2cWaitAck();
 10011c0:	1000e480 	call	1000e48 <i2cWaitAck>

	while (cnt--) {
 10011c4:	00000b06 	br	10011f4 <i2cWriteMulti+0x9c>
		i2cSendByte(buff[k++]);
 10011c8:	e0bffb03 	ldbu	r2,-20(fp)
 10011cc:	10c00044 	addi	r3,r2,1
 10011d0:	e0fffb05 	stb	r3,-20(fp)
 10011d4:	10803fcc 	andi	r2,r2,255
 10011d8:	e0fffe17 	ldw	r3,-8(fp)
 10011dc:	1885883a 	add	r2,r3,r2
 10011e0:	10800003 	ldbu	r2,0(r2)
 10011e4:	10803fcc 	andi	r2,r2,255
 10011e8:	1009883a 	mov	r4,r2
 10011ec:	1000f0c0 	call	1000f0c <i2cSendByte>
		i2cWaitAck();
 10011f0:	1000e480 	call	1000e48 <i2cWaitAck>
		return false;
	}
	i2cSendByte(reg);
	i2cWaitAck();

	while (cnt--) {
 10011f4:	e0bfff03 	ldbu	r2,-4(fp)
 10011f8:	10ffffc4 	addi	r3,r2,-1
 10011fc:	e0ffff05 	stb	r3,-4(fp)
 1001200:	10803fcc 	andi	r2,r2,255
 1001204:	103ff01e 	bne	r2,zero,10011c8 <__alt_data_end+0xff8011c8>
		i2cSendByte(buff[k++]);
		i2cWaitAck();
	}
	i2cStop();
 1001208:	1000cb00 	call	1000cb0 <i2cStop>
	return true;
 100120c:	00800044 	movi	r2,1
}
 1001210:	e037883a 	mov	sp,fp
 1001214:	dfc00117 	ldw	ra,4(sp)
 1001218:	df000017 	ldw	fp,0(sp)
 100121c:	dec00204 	addi	sp,sp,8
 1001220:	f800283a 	ret

01001224 <i2cReadReg>:

u8 i2cReadReg(u8 slave, u8 reg) {
 1001224:	defffb04 	addi	sp,sp,-20
 1001228:	dfc00415 	stw	ra,16(sp)
 100122c:	df000315 	stw	fp,12(sp)
 1001230:	df000304 	addi	fp,sp,12
 1001234:	2007883a 	mov	r3,r4
 1001238:	2805883a 	mov	r2,r5
 100123c:	e0fffe05 	stb	r3,-8(fp)
 1001240:	e0bfff05 	stb	r2,-4(fp)
	u8 data;
	if (!i2cStart())
 1001244:	1000bfc0 	call	1000bfc <i2cStart>
 1001248:	1000021e 	bne	r2,zero,1001254 <i2cReadReg+0x30>
		return false;
 100124c:	0005883a 	mov	r2,zero
 1001250:	00001806 	br	10012b4 <i2cReadReg+0x90>
	i2cSendByte(slave);
 1001254:	e0bffe03 	ldbu	r2,-8(fp)
 1001258:	1009883a 	mov	r4,r2
 100125c:	1000f0c0 	call	1000f0c <i2cSendByte>
	if (!i2cWaitAck()) {
 1001260:	1000e480 	call	1000e48 <i2cWaitAck>
 1001264:	1000031e 	bne	r2,zero,1001274 <i2cReadReg+0x50>
		i2cStop();
 1001268:	1000cb00 	call	1000cb0 <i2cStop>
		return false;
 100126c:	0005883a 	mov	r2,zero
 1001270:	00001006 	br	10012b4 <i2cReadReg+0x90>
	}
	i2cSendByte((u8) reg);
 1001274:	e0bfff03 	ldbu	r2,-4(fp)
 1001278:	1009883a 	mov	r4,r2
 100127c:	1000f0c0 	call	1000f0c <i2cSendByte>
	i2cWaitAck();
 1001280:	1000e480 	call	1000e48 <i2cWaitAck>
	i2cStart();
 1001284:	1000bfc0 	call	1000bfc <i2cStart>
	i2cSendByte(slave + 1);
 1001288:	e0bffe03 	ldbu	r2,-8(fp)
 100128c:	10800044 	addi	r2,r2,1
 1001290:	10803fcc 	andi	r2,r2,255
 1001294:	1009883a 	mov	r4,r2
 1001298:	1000f0c0 	call	1000f0c <i2cSendByte>
	i2cWaitAck();
 100129c:	1000e480 	call	1000e48 <i2cWaitAck>

	data = i2cReadByte();
 10012a0:	1000fec0 	call	1000fec <i2cReadByte>
 10012a4:	e0bffd05 	stb	r2,-12(fp)
	i2cNoAck();
 10012a8:	1000dc00 	call	1000dc0 <i2cNoAck>
	i2cStop();
 10012ac:	1000cb00 	call	1000cb0 <i2cStop>
	return data;
 10012b0:	e0bffd03 	ldbu	r2,-12(fp)
}
 10012b4:	e037883a 	mov	sp,fp
 10012b8:	dfc00117 	ldw	ra,4(sp)
 10012bc:	df000017 	ldw	fp,0(sp)
 10012c0:	dec00204 	addi	sp,sp,8
 10012c4:	f800283a 	ret

010012c8 <i2cReadMulti>:

bool i2cReadMulti(u8 slave, u8 reg, u8 *buff, u8 cnt) {
 10012c8:	defff804 	addi	sp,sp,-32
 10012cc:	dfc00715 	stw	ra,28(sp)
 10012d0:	df000615 	stw	fp,24(sp)
 10012d4:	dc000515 	stw	r16,20(sp)
 10012d8:	df000604 	addi	fp,sp,24
 10012dc:	2807883a 	mov	r3,r5
 10012e0:	e1bffd15 	stw	r6,-12(fp)
 10012e4:	3805883a 	mov	r2,r7
 10012e8:	e13ffb05 	stb	r4,-20(fp)
 10012ec:	e0fffc05 	stb	r3,-16(fp)
 10012f0:	e0bffe05 	stb	r2,-8(fp)
	u8 k = 0;
 10012f4:	e03ffa05 	stb	zero,-24(fp)
	if (!i2cStart())
 10012f8:	1000bfc0 	call	1000bfc <i2cStart>
 10012fc:	1000021e 	bne	r2,zero,1001308 <i2cReadMulti+0x40>
		return false;
 1001300:	0005883a 	mov	r2,zero
 1001304:	00002706 	br	10013a4 <i2cReadMulti+0xdc>
	i2cSendByte(slave);
 1001308:	e0bffb03 	ldbu	r2,-20(fp)
 100130c:	1009883a 	mov	r4,r2
 1001310:	1000f0c0 	call	1000f0c <i2cSendByte>
	if (!i2cWaitAck()) {
 1001314:	1000e480 	call	1000e48 <i2cWaitAck>
 1001318:	1000031e 	bne	r2,zero,1001328 <i2cReadMulti+0x60>
		i2cStop();
 100131c:	1000cb00 	call	1000cb0 <i2cStop>
		return false;
 1001320:	0005883a 	mov	r2,zero
 1001324:	00001f06 	br	10013a4 <i2cReadMulti+0xdc>
	}
	i2cSendByte((u8) reg);
 1001328:	e0bffc03 	ldbu	r2,-16(fp)
 100132c:	1009883a 	mov	r4,r2
 1001330:	1000f0c0 	call	1000f0c <i2cSendByte>
	i2cWaitAck();
 1001334:	1000e480 	call	1000e48 <i2cWaitAck>
	i2cStart();
 1001338:	1000bfc0 	call	1000bfc <i2cStart>
	i2cSendByte(slave + 1);
 100133c:	e0bffb03 	ldbu	r2,-20(fp)
 1001340:	10800044 	addi	r2,r2,1
 1001344:	10803fcc 	andi	r2,r2,255
 1001348:	1009883a 	mov	r4,r2
 100134c:	1000f0c0 	call	1000f0c <i2cSendByte>
	i2cWaitAck();
 1001350:	1000e480 	call	1000e48 <i2cWaitAck>

	while (cnt--) {
 1001354:	00000b06 	br	1001384 <i2cReadMulti+0xbc>
		buff[k++] = i2cReadByte();
 1001358:	e0bffa03 	ldbu	r2,-24(fp)
 100135c:	10c00044 	addi	r3,r2,1
 1001360:	e0fffa05 	stb	r3,-24(fp)
 1001364:	10803fcc 	andi	r2,r2,255
 1001368:	e0fffd17 	ldw	r3,-12(fp)
 100136c:	18a1883a 	add	r16,r3,r2
 1001370:	1000fec0 	call	1000fec <i2cReadByte>
 1001374:	80800005 	stb	r2,0(r16)
		if (cnt)
 1001378:	e0bffe03 	ldbu	r2,-8(fp)
 100137c:	10000126 	beq	r2,zero,1001384 <i2cReadMulti+0xbc>
			i2cAck();
 1001380:	1000d380 	call	1000d38 <i2cAck>
	i2cWaitAck();
	i2cStart();
	i2cSendByte(slave + 1);
	i2cWaitAck();

	while (cnt--) {
 1001384:	e0bffe03 	ldbu	r2,-8(fp)
 1001388:	10ffffc4 	addi	r3,r2,-1
 100138c:	e0fffe05 	stb	r3,-8(fp)
 1001390:	10803fcc 	andi	r2,r2,255
 1001394:	103ff01e 	bne	r2,zero,1001358 <__alt_data_end+0xff801358>
		buff[k++] = i2cReadByte();
		if (cnt)
			i2cAck();
	}
	i2cNoAck();
 1001398:	1000dc00 	call	1000dc0 <i2cNoAck>
	i2cStop();
 100139c:	1000cb00 	call	1000cb0 <i2cStop>

	return true;
 10013a0:	00800044 	movi	r2,1
}
 10013a4:	e6ffff04 	addi	sp,fp,-4
 10013a8:	dfc00217 	ldw	ra,8(sp)
 10013ac:	df000117 	ldw	fp,4(sp)
 10013b0:	dc000017 	ldw	r16,0(sp)
 10013b4:	dec00304 	addi	sp,sp,12
 10013b8:	f800283a 	ret

010013bc <keyInit>:
 *      Author: hailiang
 */

#include "key.h"

int keyInit(void) {
 10013bc:	defffe04 	addi	sp,sp,-8
 10013c0:	dfc00115 	stw	ra,4(sp)
 10013c4:	df000015 	stw	fp,0(sp)
 10013c8:	d839883a 	mov	fp,sp
	IOWR(KEYIRQ_BASE, 2, 0x07);
 10013cc:	00c001c4 	movi	r3,7
 10013d0:	00801034 	movhi	r2,64
 10013d4:	10843204 	addi	r2,r2,4296
 10013d8:	10c00035 	stwio	r3,0(r2)
	IOWR(KEYIRQ_BASE, 3, 0x00);
 10013dc:	0007883a 	mov	r3,zero
 10013e0:	00801034 	movhi	r2,64
 10013e4:	10843304 	addi	r2,r2,4300
 10013e8:	10c00035 	stwio	r3,0(r2)
	return alt_irq_register(KEYIRQ_IRQ, NULL, (void *) keyIsr);
 10013ec:	01804034 	movhi	r6,256
 10013f0:	31850504 	addi	r6,r6,5140
 10013f4:	000b883a 	mov	r5,zero
 10013f8:	010000c4 	movi	r4,3
 10013fc:	1015b340 	call	1015b34 <alt_irq_register>
}
 1001400:	e037883a 	mov	sp,fp
 1001404:	dfc00117 	ldw	ra,4(sp)
 1001408:	df000017 	ldw	fp,0(sp)
 100140c:	dec00204 	addi	sp,sp,8
 1001410:	f800283a 	ret

01001414 <keyIsr>:

void keyIsr(void* isr_context) {
 1001414:	defffb04 	addi	sp,sp,-20
 1001418:	dfc00415 	stw	ra,16(sp)
 100141c:	df000315 	stw	fp,12(sp)
 1001420:	df000304 	addi	fp,sp,12
 1001424:	e13fff15 	stw	r4,-4(fp)
	IOWR(KEYIRQ_BASE, 3, 0x00);
 1001428:	0007883a 	mov	r3,zero
 100142c:	00801034 	movhi	r2,64
 1001430:	10843304 	addi	r2,r2,4300
 1001434:	10c00035 	stwio	r3,0(r2)

	volatile u8 keyirq;
	volatile u8 keyvalue;

	keyirq = IORD(KEYIRQ_BASE, 0) & 0xff;
 1001438:	00801034 	movhi	r2,64
 100143c:	10843004 	addi	r2,r2,4288
 1001440:	10800037 	ldwio	r2,0(r2)
 1001444:	e0bffe05 	stb	r2,-8(fp)
	keyvalue = IORD(KEYVALUE_BASE, 0) & 0xff;
 1001448:	00801034 	movhi	r2,64
 100144c:	10842c04 	addi	r2,r2,4272
 1001450:	10800037 	ldwio	r2,0(r2)
 1001454:	e0bffe45 	stb	r2,-7(fp)

    if(keyirq==0x1 && keyvalue==0x5)			//SW1
 1001458:	e0bffe03 	ldbu	r2,-8(fp)
 100145c:	10803fcc 	andi	r2,r2,255
 1001460:	10800058 	cmpnei	r2,r2,1
 1001464:	1000041e 	bne	r2,zero,1001478 <keyIsr+0x64>
 1001468:	e0bffe43 	ldbu	r2,-7(fp)
 100146c:	10803fcc 	andi	r2,r2,255
 1001470:	10800158 	cmpnei	r2,r2,5
 1001474:	10001726 	beq	r2,zero,10014d4 <keyIsr+0xc0>
    {

    }

    else  if(keyirq==0x1 && keyvalue==0x6)		//SW2
 1001478:	e0bffe03 	ldbu	r2,-8(fp)
 100147c:	10803fcc 	andi	r2,r2,255
 1001480:	10800058 	cmpnei	r2,r2,1
 1001484:	1000041e 	bne	r2,zero,1001498 <keyIsr+0x84>
 1001488:	e0bffe43 	ldbu	r2,-7(fp)
 100148c:	10803fcc 	andi	r2,r2,255
 1001490:	10800198 	cmpnei	r2,r2,6
 1001494:	10000f26 	beq	r2,zero,10014d4 <keyIsr+0xc0>
    {

    }

    ///           //
    else  if(keyirq==0x2)						//Clockwise
 1001498:	e0bffe03 	ldbu	r2,-8(fp)
 100149c:	10803fcc 	andi	r2,r2,255
 10014a0:	108000a0 	cmpeqi	r2,r2,2
 10014a4:	10000b1e 	bne	r2,zero,10014d4 <keyIsr+0xc0>
    {

    }

    else  if(keyirq==0x4)						//Anti-Clockwise
 10014a8:	e0bffe03 	ldbu	r2,-8(fp)
 10014ac:	10803fcc 	andi	r2,r2,255
 10014b0:	10800120 	cmpeqi	r2,r2,4
 10014b4:	1000071e 	bne	r2,zero,10014d4 <keyIsr+0xc0>
    {

    }

    else
    	lcdRectClear(0, 0, HDP, VDP, BACKGROUND);
 10014b8:	00bfffd4 	movui	r2,65535
 10014bc:	d8800015 	stw	r2,0(sp)
 10014c0:	01c077c4 	movi	r7,479
 10014c4:	0180c7c4 	movi	r6,799
 10014c8:	000b883a 	mov	r5,zero
 10014cc:	0009883a 	mov	r4,zero
 10014d0:	10019640 	call	1001964 <lcdRectClear>

	printf("keyirq = 0x%x, keyvalue = 0x%x\n", keyirq, keyvalue);
 10014d4:	e0bffe03 	ldbu	r2,-8(fp)
 10014d8:	10803fcc 	andi	r2,r2,255
 10014dc:	e0fffe43 	ldbu	r3,-7(fp)
 10014e0:	18c03fcc 	andi	r3,r3,255
 10014e4:	180d883a 	mov	r6,r3
 10014e8:	100b883a 	mov	r5,r2
 10014ec:	010040b4 	movhi	r4,258
 10014f0:	21023f04 	addi	r4,r4,2300
 10014f4:	10059dc0 	call	10059dc <printf>
}
 10014f8:	0001883a 	nop
 10014fc:	e037883a 	mov	sp,fp
 1001500:	dfc00117 	ldw	ra,4(sp)
 1001504:	df000017 	ldw	fp,0(sp)
 1001508:	dec00204 	addi	sp,sp,8
 100150c:	f800283a 	ret

01001510 <lcdInit>:
u8 LINEMODE = 1;
u8 CYCLE = 6;
u8 DUTY = 3;
u8 HLPEN = 0;

int lcdInit(void) {
 1001510:	defffd04 	addi	sp,sp,-12
 1001514:	dfc00215 	stw	ra,8(sp)
 1001518:	df000115 	stw	fp,4(sp)
 100151c:	df000104 	addi	fp,sp,4
	lcdWriteCommand(0x00E2);
 1001520:	01003884 	movi	r4,226
 1001524:	100173c0 	call	100173c <lcdWriteCommand>
	lcdWriteData(0x001D);
 1001528:	01000744 	movi	r4,29
 100152c:	10017740 	call	1001774 <lcdWriteData>
	lcdWriteData(0x0002);
 1001530:	01000084 	movi	r4,2
 1001534:	10017740 	call	1001774 <lcdWriteData>
	lcdWriteData(0x0004);
 1001538:	01000104 	movi	r4,4
 100153c:	10017740 	call	1001774 <lcdWriteData>
	usleep(100);
 1001540:	01001904 	movi	r4,100
 1001544:	10161b40 	call	10161b4 <usleep>
	lcdWriteCommand(0x00E0);
 1001548:	01003804 	movi	r4,224
 100154c:	100173c0 	call	100173c <lcdWriteCommand>
	lcdWriteData(0x0001);
 1001550:	01000044 	movi	r4,1
 1001554:	10017740 	call	1001774 <lcdWriteData>
	usleep(2000);
 1001558:	0101f404 	movi	r4,2000
 100155c:	10161b40 	call	10161b4 <usleep>
	lcdWriteCommand(0x00E0);
 1001560:	01003804 	movi	r4,224
 1001564:	100173c0 	call	100173c <lcdWriteCommand>
	lcdWriteData(0x0003);
 1001568:	010000c4 	movi	r4,3
 100156c:	10017740 	call	1001774 <lcdWriteData>
	usleep(100);
 1001570:	01001904 	movi	r4,100
 1001574:	10161b40 	call	10161b4 <usleep>
	lcdWriteCommand(0x0001);
 1001578:	01000044 	movi	r4,1
 100157c:	100173c0 	call	100173c <lcdWriteCommand>
	usleep(6000);
 1001580:	0105dc04 	movi	r4,6000
 1001584:	10161b40 	call	10161b4 <usleep>

	lcdWriteCommand(0x00E6);
 1001588:	01003984 	movi	r4,230
 100158c:	100173c0 	call	100173c <lcdWriteCommand>
	lcdWriteData(0x002f);
 1001590:	01000bc4 	movi	r4,47
 1001594:	10017740 	call	1001774 <lcdWriteData>
	lcdWriteData(0x00ff);
 1001598:	01003fc4 	movi	r4,255
 100159c:	10017740 	call	1001774 <lcdWriteData>
	lcdWriteData(0x00ff);
 10015a0:	01003fc4 	movi	r4,255
 10015a4:	10017740 	call	1001774 <lcdWriteData>

	lcdWriteCommand(0x00B0);
 10015a8:	01002c04 	movi	r4,176
 10015ac:	100173c0 	call	100173c <lcdWriteCommand>
	lcdWriteData(0x0020);
 10015b0:	01000804 	movi	r4,32
 10015b4:	10017740 	call	1001774 <lcdWriteData>
	lcdWriteData(0x0000);
 10015b8:	0009883a 	mov	r4,zero
 10015bc:	10017740 	call	1001774 <lcdWriteData>
	lcdWriteData((HDP >> 8) & 0X00FF);
 10015c0:	010000c4 	movi	r4,3
 10015c4:	10017740 	call	1001774 <lcdWriteData>
	lcdWriteData(HDP & 0X00FF);
 10015c8:	010007c4 	movi	r4,31
 10015cc:	10017740 	call	1001774 <lcdWriteData>
	lcdWriteData((VDP >> 8) & 0X00FF);
 10015d0:	01000044 	movi	r4,1
 10015d4:	10017740 	call	1001774 <lcdWriteData>
	lcdWriteData(VDP & 0X00FF);
 10015d8:	010037c4 	movi	r4,223
 10015dc:	10017740 	call	1001774 <lcdWriteData>
	lcdWriteData(0x0000);
 10015e0:	0009883a 	mov	r4,zero
 10015e4:	10017740 	call	1001774 <lcdWriteData>

	lcdWriteCommand(0x00B4);
 10015e8:	01002d04 	movi	r4,180
 10015ec:	100173c0 	call	100173c <lcdWriteCommand>
	lcdWriteData((HT >> 8) & 0X00FF);
 10015f0:	01000104 	movi	r4,4
 10015f4:	10017740 	call	1001774 <lcdWriteData>
	lcdWriteData(HT & 0X00FF);
 10015f8:	010007c4 	movi	r4,31
 10015fc:	10017740 	call	1001774 <lcdWriteData>
	lcdWriteData((HPS >> 8) & 0X00FF);
 1001600:	0009883a 	mov	r4,zero
 1001604:	10017740 	call	1001774 <lcdWriteData>
	lcdWriteData(HPS & 0X00FF);
 1001608:	01000b84 	movi	r4,46
 100160c:	10017740 	call	1001774 <lcdWriteData>
	lcdWriteData(HPW);
 1001610:	0009883a 	mov	r4,zero
 1001614:	10017740 	call	1001774 <lcdWriteData>
	lcdWriteData((LPS >> 8) & 0X00FF);
 1001618:	0009883a 	mov	r4,zero
 100161c:	10017740 	call	1001774 <lcdWriteData>
	lcdWriteData(LPS & 0X00FF);
 1001620:	0009883a 	mov	r4,zero
 1001624:	10017740 	call	1001774 <lcdWriteData>
	lcdWriteData(0x0000);
 1001628:	0009883a 	mov	r4,zero
 100162c:	10017740 	call	1001774 <lcdWriteData>

	lcdWriteCommand(0x00B6);
 1001630:	01002d84 	movi	r4,182
 1001634:	100173c0 	call	100173c <lcdWriteCommand>
	lcdWriteData((VT >> 8) & 0X00FF);
 1001638:	01000084 	movi	r4,2
 100163c:	10017740 	call	1001774 <lcdWriteData>
	lcdWriteData(VT & 0X00FF);
 1001640:	01000304 	movi	r4,12
 1001644:	10017740 	call	1001774 <lcdWriteData>
	lcdWriteData((VPS >> 8) & 0X00FF);
 1001648:	0009883a 	mov	r4,zero
 100164c:	10017740 	call	1001774 <lcdWriteData>
	lcdWriteData(VPS & 0X00FF);
 1001650:	010005c4 	movi	r4,23
 1001654:	10017740 	call	1001774 <lcdWriteData>
	lcdWriteData(VPW);
 1001658:	0009883a 	mov	r4,zero
 100165c:	10017740 	call	1001774 <lcdWriteData>
	lcdWriteData((FPS >> 8) & 0X00FF);
 1001660:	0009883a 	mov	r4,zero
 1001664:	10017740 	call	1001774 <lcdWriteData>
	lcdWriteData(FPS & 0X00FF);
 1001668:	0009883a 	mov	r4,zero
 100166c:	10017740 	call	1001774 <lcdWriteData>

	lcdWriteCommand(0x00F0);
 1001670:	01003c04 	movi	r4,240
 1001674:	100173c0 	call	100173c <lcdWriteCommand>
	lcdWriteData(0x0003);
 1001678:	010000c4 	movi	r4,3
 100167c:	10017740 	call	1001774 <lcdWriteData>

	lcdWriteCommand(0x0029);
 1001680:	01000a44 	movi	r4,41
 1001684:	100173c0 	call	100173c <lcdWriteCommand>

	lcdWriteCommand(0x00D0);
 1001688:	01003404 	movi	r4,208
 100168c:	100173c0 	call	100173c <lcdWriteCommand>
	lcdWriteData(0x0000);
 1001690:	0009883a 	mov	r4,zero
 1001694:	10017740 	call	1001774 <lcdWriteData>

	lcdWriteCommand(0x00BE);
 1001698:	01002f84 	movi	r4,190
 100169c:	100173c0 	call	100173c <lcdWriteCommand>
	lcdWriteData(0x0005);
 10016a0:	01000144 	movi	r4,5
 10016a4:	10017740 	call	1001774 <lcdWriteData>
	lcdWriteData(0x0090);
 10016a8:	01002404 	movi	r4,144
 10016ac:	10017740 	call	1001774 <lcdWriteData>
	lcdWriteData(0x0001);
 10016b0:	01000044 	movi	r4,1
 10016b4:	10017740 	call	1001774 <lcdWriteData>
	lcdWriteData(0x00FF);
 10016b8:	01003fc4 	movi	r4,255
 10016bc:	10017740 	call	1001774 <lcdWriteData>
	lcdWriteData(0x0000);
 10016c0:	0009883a 	mov	r4,zero
 10016c4:	10017740 	call	1001774 <lcdWriteData>
	lcdWriteData(0x0000);
 10016c8:	0009883a 	mov	r4,zero
 10016cc:	10017740 	call	1001774 <lcdWriteData>

	lcdWriteCommand(0x00B8);
 10016d0:	01002e04 	movi	r4,184
 10016d4:	100173c0 	call	100173c <lcdWriteCommand>
	lcdWriteData(0x0003);
 10016d8:	010000c4 	movi	r4,3
 10016dc:	10017740 	call	1001774 <lcdWriteData>
	lcdWriteData(0x0001);
 10016e0:	01000044 	movi	r4,1
 10016e4:	10017740 	call	1001774 <lcdWriteData>

	lcdWriteCommand(0x00BA);
 10016e8:	01002e84 	movi	r4,186
 10016ec:	100173c0 	call	100173c <lcdWriteCommand>
	lcdWriteData(0x0001);
 10016f0:	01000044 	movi	r4,1
 10016f4:	10017740 	call	1001774 <lcdWriteData>

	lcdWriteCommand(0x0036);
 10016f8:	01000d84 	movi	r4,54
 10016fc:	100173c0 	call	100173c <lcdWriteCommand>
	lcdWriteData(0x0020);
 1001700:	01000804 	movi	r4,32
 1001704:	10017740 	call	1001774 <lcdWriteData>

	lcdRectClear(0, 0, HDP, VDP, BACKGROUND);
 1001708:	00bfffd4 	movui	r2,65535
 100170c:	d8800015 	stw	r2,0(sp)
 1001710:	01c077c4 	movi	r7,479
 1001714:	0180c7c4 	movi	r6,799
 1001718:	000b883a 	mov	r5,zero
 100171c:	0009883a 	mov	r4,zero
 1001720:	10019640 	call	1001964 <lcdRectClear>
	return 0;
 1001724:	0005883a 	mov	r2,zero
}
 1001728:	e037883a 	mov	sp,fp
 100172c:	dfc00117 	ldw	ra,4(sp)
 1001730:	df000017 	ldw	fp,0(sp)
 1001734:	dec00204 	addi	sp,sp,8
 1001738:	f800283a 	ret

0100173c <lcdWriteCommand>:

void lcdWriteCommand(u16 command) {
 100173c:	defffe04 	addi	sp,sp,-8
 1001740:	df000115 	stw	fp,4(sp)
 1001744:	df000104 	addi	fp,sp,4
 1001748:	2005883a 	mov	r2,r4
 100174c:	e0bfff0d 	sth	r2,-4(fp)
	IOWR(LCD_BASE, 0, command);
 1001750:	e0ffff0b 	ldhu	r3,-4(fp)
 1001754:	00801034 	movhi	r2,64
 1001758:	10844204 	addi	r2,r2,4360
 100175c:	10c00035 	stwio	r3,0(r2)
}
 1001760:	0001883a 	nop
 1001764:	e037883a 	mov	sp,fp
 1001768:	df000017 	ldw	fp,0(sp)
 100176c:	dec00104 	addi	sp,sp,4
 1001770:	f800283a 	ret

01001774 <lcdWriteData>:

void lcdWriteData(u16 data) {
 1001774:	defffe04 	addi	sp,sp,-8
 1001778:	df000115 	stw	fp,4(sp)
 100177c:	df000104 	addi	fp,sp,4
 1001780:	2005883a 	mov	r2,r4
 1001784:	e0bfff0d 	sth	r2,-4(fp)
	IOWR(LCD_BASE, 1, data);
 1001788:	e0ffff0b 	ldhu	r3,-4(fp)
 100178c:	00801034 	movhi	r2,64
 1001790:	10844304 	addi	r2,r2,4364
 1001794:	10c00035 	stwio	r3,0(r2)
}
 1001798:	0001883a 	nop
 100179c:	e037883a 	mov	sp,fp
 10017a0:	df000017 	ldw	fp,0(sp)
 10017a4:	dec00104 	addi	sp,sp,4
 10017a8:	f800283a 	ret

010017ac <lcdReadData>:

u16 lcdReadData(void) {
 10017ac:	deffff04 	addi	sp,sp,-4
 10017b0:	df000015 	stw	fp,0(sp)
 10017b4:	d839883a 	mov	fp,sp
	return (u16) IORD(LCD_BASE, 1);
 10017b8:	00801034 	movhi	r2,64
 10017bc:	10844304 	addi	r2,r2,4364
 10017c0:	10800037 	ldwio	r2,0(r2)
}
 10017c4:	e037883a 	mov	sp,fp
 10017c8:	df000017 	ldw	fp,0(sp)
 10017cc:	dec00104 	addi	sp,sp,4
 10017d0:	f800283a 	ret

010017d4 <lcdSetCursor>:

void lcdSetCursor(u16 x, u16 y) {
 10017d4:	defffc04 	addi	sp,sp,-16
 10017d8:	dfc00315 	stw	ra,12(sp)
 10017dc:	df000215 	stw	fp,8(sp)
 10017e0:	df000204 	addi	fp,sp,8
 10017e4:	2007883a 	mov	r3,r4
 10017e8:	2805883a 	mov	r2,r5
 10017ec:	e0fffe0d 	sth	r3,-8(fp)
 10017f0:	e0bfff0d 	sth	r2,-4(fp)
	lcdWriteCommand(0x002A);
 10017f4:	01000a84 	movi	r4,42
 10017f8:	100173c0 	call	100173c <lcdWriteCommand>
	lcdWriteData(x >> 8);
 10017fc:	e0bffe0b 	ldhu	r2,-8(fp)
 1001800:	1004d23a 	srli	r2,r2,8
 1001804:	10bfffcc 	andi	r2,r2,65535
 1001808:	1009883a 	mov	r4,r2
 100180c:	10017740 	call	1001774 <lcdWriteData>
	lcdWriteData(x & 0x00ff);
 1001810:	e0bffe0b 	ldhu	r2,-8(fp)
 1001814:	10803fcc 	andi	r2,r2,255
 1001818:	1009883a 	mov	r4,r2
 100181c:	10017740 	call	1001774 <lcdWriteData>
	lcdWriteData(x >> 8);
 1001820:	e0bffe0b 	ldhu	r2,-8(fp)
 1001824:	1004d23a 	srli	r2,r2,8
 1001828:	10bfffcc 	andi	r2,r2,65535
 100182c:	1009883a 	mov	r4,r2
 1001830:	10017740 	call	1001774 <lcdWriteData>
	lcdWriteData(x & 0x00ff);
 1001834:	e0bffe0b 	ldhu	r2,-8(fp)
 1001838:	10803fcc 	andi	r2,r2,255
 100183c:	1009883a 	mov	r4,r2
 1001840:	10017740 	call	1001774 <lcdWriteData>

	lcdWriteCommand(0x002B);
 1001844:	01000ac4 	movi	r4,43
 1001848:	100173c0 	call	100173c <lcdWriteCommand>
	lcdWriteData(y >> 8);
 100184c:	e0bfff0b 	ldhu	r2,-4(fp)
 1001850:	1004d23a 	srli	r2,r2,8
 1001854:	10bfffcc 	andi	r2,r2,65535
 1001858:	1009883a 	mov	r4,r2
 100185c:	10017740 	call	1001774 <lcdWriteData>
	lcdWriteData(y & 0x00ff);
 1001860:	e0bfff0b 	ldhu	r2,-4(fp)
 1001864:	10803fcc 	andi	r2,r2,255
 1001868:	1009883a 	mov	r4,r2
 100186c:	10017740 	call	1001774 <lcdWriteData>
	lcdWriteData(y >> 8);
 1001870:	e0bfff0b 	ldhu	r2,-4(fp)
 1001874:	1004d23a 	srli	r2,r2,8
 1001878:	10bfffcc 	andi	r2,r2,65535
 100187c:	1009883a 	mov	r4,r2
 1001880:	10017740 	call	1001774 <lcdWriteData>
	lcdWriteData(y & 0x00ff);
 1001884:	e0bfff0b 	ldhu	r2,-4(fp)
 1001888:	10803fcc 	andi	r2,r2,255
 100188c:	1009883a 	mov	r4,r2
 1001890:	10017740 	call	1001774 <lcdWriteData>
}
 1001894:	0001883a 	nop
 1001898:	e037883a 	mov	sp,fp
 100189c:	dfc00117 	ldw	ra,4(sp)
 10018a0:	df000017 	ldw	fp,0(sp)
 10018a4:	dec00204 	addi	sp,sp,8
 10018a8:	f800283a 	ret

010018ac <lcdDrawPoint>:

void lcdDrawPoint(u16 x, u16 y, u16 color) {
 10018ac:	defffb04 	addi	sp,sp,-20
 10018b0:	dfc00415 	stw	ra,16(sp)
 10018b4:	df000315 	stw	fp,12(sp)
 10018b8:	df000304 	addi	fp,sp,12
 10018bc:	2807883a 	mov	r3,r5
 10018c0:	3005883a 	mov	r2,r6
 10018c4:	e13ffd0d 	sth	r4,-12(fp)
 10018c8:	e0fffe0d 	sth	r3,-8(fp)
 10018cc:	e0bfff0d 	sth	r2,-4(fp)
	lcdSetCursor(x, y);
 10018d0:	e0bffd0b 	ldhu	r2,-12(fp)
 10018d4:	e0fffe0b 	ldhu	r3,-8(fp)
 10018d8:	180b883a 	mov	r5,r3
 10018dc:	1009883a 	mov	r4,r2
 10018e0:	10017d40 	call	10017d4 <lcdSetCursor>
	lcdWriteCommand(0x002C);
 10018e4:	01000b04 	movi	r4,44
 10018e8:	100173c0 	call	100173c <lcdWriteCommand>
	lcdWriteData(color);
 10018ec:	e0bfff0b 	ldhu	r2,-4(fp)
 10018f0:	1009883a 	mov	r4,r2
 10018f4:	10017740 	call	1001774 <lcdWriteData>
}
 10018f8:	0001883a 	nop
 10018fc:	e037883a 	mov	sp,fp
 1001900:	dfc00117 	ldw	ra,4(sp)
 1001904:	df000017 	ldw	fp,0(sp)
 1001908:	dec00204 	addi	sp,sp,8
 100190c:	f800283a 	ret

01001910 <lcdGetPoint>:

u16 lcdGetPoint(u16 x, u16 y) {
 1001910:	defffc04 	addi	sp,sp,-16
 1001914:	dfc00315 	stw	ra,12(sp)
 1001918:	df000215 	stw	fp,8(sp)
 100191c:	df000204 	addi	fp,sp,8
 1001920:	2007883a 	mov	r3,r4
 1001924:	2805883a 	mov	r2,r5
 1001928:	e0fffe0d 	sth	r3,-8(fp)
 100192c:	e0bfff0d 	sth	r2,-4(fp)
	lcdSetCursor(x, y);
 1001930:	e0bffe0b 	ldhu	r2,-8(fp)
 1001934:	e0ffff0b 	ldhu	r3,-4(fp)
 1001938:	180b883a 	mov	r5,r3
 100193c:	1009883a 	mov	r4,r2
 1001940:	10017d40 	call	10017d4 <lcdSetCursor>
	lcdWriteCommand(0x002E);
 1001944:	01000b84 	movi	r4,46
 1001948:	100173c0 	call	100173c <lcdWriteCommand>
	return lcdReadData();
 100194c:	10017ac0 	call	10017ac <lcdReadData>
}
 1001950:	e037883a 	mov	sp,fp
 1001954:	dfc00117 	ldw	ra,4(sp)
 1001958:	df000017 	ldw	fp,0(sp)
 100195c:	dec00204 	addi	sp,sp,8
 1001960:	f800283a 	ret

01001964 <lcdRectClear>:
void lcdRectClear(u16 xs, u16 ys, u16 xe, u16 ye, u16 color) {
 1001964:	defff804 	addi	sp,sp,-32
 1001968:	dfc00715 	stw	ra,28(sp)
 100196c:	df000615 	stw	fp,24(sp)
 1001970:	df000604 	addi	fp,sp,24
 1001974:	2011883a 	mov	r8,r4
 1001978:	3009883a 	mov	r4,r6
 100197c:	3807883a 	mov	r3,r7
 1001980:	e0800217 	ldw	r2,8(fp)
 1001984:	e23ffb0d 	sth	r8,-20(fp)
 1001988:	e17ffc0d 	sth	r5,-16(fp)
 100198c:	e13ffd0d 	sth	r4,-12(fp)
 1001990:	e0fffe0d 	sth	r3,-8(fp)
 1001994:	e0bfff0d 	sth	r2,-4(fp)
	int cnt = (xe - xs + 1) * (ye - ys + 1);
 1001998:	e0fffd0b 	ldhu	r3,-12(fp)
 100199c:	e0bffb0b 	ldhu	r2,-20(fp)
 10019a0:	1885c83a 	sub	r2,r3,r2
 10019a4:	10c00044 	addi	r3,r2,1
 10019a8:	e13ffe0b 	ldhu	r4,-8(fp)
 10019ac:	e0bffc0b 	ldhu	r2,-16(fp)
 10019b0:	2085c83a 	sub	r2,r4,r2
 10019b4:	10800044 	addi	r2,r2,1
 10019b8:	1885383a 	mul	r2,r3,r2
 10019bc:	e0bffa15 	stw	r2,-24(fp)

	lcdWriteCommand(0x002A);
 10019c0:	01000a84 	movi	r4,42
 10019c4:	100173c0 	call	100173c <lcdWriteCommand>
	lcdWriteData(xs >> 8);
 10019c8:	e0bffb0b 	ldhu	r2,-20(fp)
 10019cc:	1004d23a 	srli	r2,r2,8
 10019d0:	10bfffcc 	andi	r2,r2,65535
 10019d4:	1009883a 	mov	r4,r2
 10019d8:	10017740 	call	1001774 <lcdWriteData>
	lcdWriteData(xs & 0x00ff);
 10019dc:	e0bffb0b 	ldhu	r2,-20(fp)
 10019e0:	10803fcc 	andi	r2,r2,255
 10019e4:	1009883a 	mov	r4,r2
 10019e8:	10017740 	call	1001774 <lcdWriteData>
	lcdWriteData(xe >> 8);
 10019ec:	e0bffd0b 	ldhu	r2,-12(fp)
 10019f0:	1004d23a 	srli	r2,r2,8
 10019f4:	10bfffcc 	andi	r2,r2,65535
 10019f8:	1009883a 	mov	r4,r2
 10019fc:	10017740 	call	1001774 <lcdWriteData>
	lcdWriteData(xe & 0x00ff);
 1001a00:	e0bffd0b 	ldhu	r2,-12(fp)
 1001a04:	10803fcc 	andi	r2,r2,255
 1001a08:	1009883a 	mov	r4,r2
 1001a0c:	10017740 	call	1001774 <lcdWriteData>

	lcdWriteCommand(0x002B);
 1001a10:	01000ac4 	movi	r4,43
 1001a14:	100173c0 	call	100173c <lcdWriteCommand>
	lcdWriteData(ys >> 8);
 1001a18:	e0bffc0b 	ldhu	r2,-16(fp)
 1001a1c:	1004d23a 	srli	r2,r2,8
 1001a20:	10bfffcc 	andi	r2,r2,65535
 1001a24:	1009883a 	mov	r4,r2
 1001a28:	10017740 	call	1001774 <lcdWriteData>
	lcdWriteData(ys & 0x00ff);
 1001a2c:	e0bffc0b 	ldhu	r2,-16(fp)
 1001a30:	10803fcc 	andi	r2,r2,255
 1001a34:	1009883a 	mov	r4,r2
 1001a38:	10017740 	call	1001774 <lcdWriteData>
	lcdWriteData(ye >> 8);
 1001a3c:	e0bffe0b 	ldhu	r2,-8(fp)
 1001a40:	1004d23a 	srli	r2,r2,8
 1001a44:	10bfffcc 	andi	r2,r2,65535
 1001a48:	1009883a 	mov	r4,r2
 1001a4c:	10017740 	call	1001774 <lcdWriteData>
	lcdWriteData(ye & 0x00ff);
 1001a50:	e0bffe0b 	ldhu	r2,-8(fp)
 1001a54:	10803fcc 	andi	r2,r2,255
 1001a58:	1009883a 	mov	r4,r2
 1001a5c:	10017740 	call	1001774 <lcdWriteData>

	lcdWriteCommand(0x002C);
 1001a60:	01000b04 	movi	r4,44
 1001a64:	100173c0 	call	100173c <lcdWriteCommand>
	while (cnt) {
 1001a68:	00000606 	br	1001a84 <lcdRectClear+0x120>
		lcdWriteData(color);
 1001a6c:	e0bfff0b 	ldhu	r2,-4(fp)
 1001a70:	1009883a 	mov	r4,r2
 1001a74:	10017740 	call	1001774 <lcdWriteData>
		cnt--;
 1001a78:	e0bffa17 	ldw	r2,-24(fp)
 1001a7c:	10bfffc4 	addi	r2,r2,-1
 1001a80:	e0bffa15 	stw	r2,-24(fp)
	lcdWriteData(ys & 0x00ff);
	lcdWriteData(ye >> 8);
	lcdWriteData(ye & 0x00ff);

	lcdWriteCommand(0x002C);
	while (cnt) {
 1001a84:	e0bffa17 	ldw	r2,-24(fp)
 1001a88:	103ff81e 	bne	r2,zero,1001a6c <__alt_data_end+0xff801a6c>
		lcdWriteData(color);
		cnt--;
	}
}
 1001a8c:	0001883a 	nop
 1001a90:	e037883a 	mov	sp,fp
 1001a94:	dfc00117 	ldw	ra,4(sp)
 1001a98:	df000017 	ldw	fp,0(sp)
 1001a9c:	dec00204 	addi	sp,sp,8
 1001aa0:	f800283a 	ret

01001aa4 <lcdSetLine>:

void lcdSetLine(u8 linemode, u8 cycle, u8 duty, u8 hlpen) {
 1001aa4:	defffb04 	addi	sp,sp,-20
 1001aa8:	df000415 	stw	fp,16(sp)
 1001aac:	df000404 	addi	fp,sp,16
 1001ab0:	2011883a 	mov	r8,r4
 1001ab4:	2809883a 	mov	r4,r5
 1001ab8:	3007883a 	mov	r3,r6
 1001abc:	3805883a 	mov	r2,r7
 1001ac0:	e23ffc05 	stb	r8,-16(fp)
 1001ac4:	e13ffd05 	stb	r4,-12(fp)
 1001ac8:	e0fffe05 	stb	r3,-8(fp)
 1001acc:	e0bfff05 	stb	r2,-4(fp)
	LINEMODE = linemode;
 1001ad0:	e0bffc03 	ldbu	r2,-16(fp)
 1001ad4:	d0a00005 	stb	r2,-32768(gp)
	CYCLE = cycle;
 1001ad8:	e0bffd03 	ldbu	r2,-12(fp)
 1001adc:	d0a00045 	stb	r2,-32767(gp)
	DUTY = duty;
 1001ae0:	e0bffe03 	ldbu	r2,-8(fp)
 1001ae4:	d0a00085 	stb	r2,-32766(gp)
	HLPEN = hlpen - 1;
 1001ae8:	e0bfff03 	ldbu	r2,-4(fp)
 1001aec:	10bfffc4 	addi	r2,r2,-1
 1001af0:	d0a01705 	stb	r2,-32676(gp)
}
 1001af4:	0001883a 	nop
 1001af8:	e037883a 	mov	sp,fp
 1001afc:	df000017 	ldw	fp,0(sp)
 1001b00:	dec00104 	addi	sp,sp,4
 1001b04:	f800283a 	ret

01001b08 <lcdDrawVerLine>:

//
void lcdDrawVerLine(u16 x, u16 ys, u16 ye, u16 color) {
 1001b08:	defff704 	addi	sp,sp,-36
 1001b0c:	dfc00815 	stw	ra,32(sp)
 1001b10:	df000715 	stw	fp,28(sp)
 1001b14:	df000704 	addi	fp,sp,28
 1001b18:	2011883a 	mov	r8,r4
 1001b1c:	2809883a 	mov	r4,r5
 1001b20:	3007883a 	mov	r3,r6
 1001b24:	3805883a 	mov	r2,r7
 1001b28:	e23ffc0d 	sth	r8,-16(fp)
 1001b2c:	e13ffd0d 	sth	r4,-12(fp)
 1001b30:	e0fffe0d 	sth	r3,-8(fp)
 1001b34:	e0bfff0d 	sth	r2,-4(fp)
	u16 cnt = 0;
 1001b38:	e03ffb0d 	sth	zero,-20(fp)
	int i = 0;
 1001b3c:	e03ffa15 	stw	zero,-24(fp)
	if (LINEMODE == 1) {
 1001b40:	d0a00003 	ldbu	r2,-32768(gp)
 1001b44:	10803fcc 	andi	r2,r2,255
 1001b48:	10800058 	cmpnei	r2,r2,1
 1001b4c:	1000471e 	bne	r2,zero,1001c6c <lcdDrawVerLine+0x164>
		lcdWriteCommand(0x002A);
 1001b50:	01000a84 	movi	r4,42
 1001b54:	100173c0 	call	100173c <lcdWriteCommand>
		lcdWriteData(x >> 8);
 1001b58:	e0bffc0b 	ldhu	r2,-16(fp)
 1001b5c:	1004d23a 	srli	r2,r2,8
 1001b60:	10bfffcc 	andi	r2,r2,65535
 1001b64:	1009883a 	mov	r4,r2
 1001b68:	10017740 	call	1001774 <lcdWriteData>
		lcdWriteData(x & 0x00ff);
 1001b6c:	e0bffc0b 	ldhu	r2,-16(fp)
 1001b70:	10803fcc 	andi	r2,r2,255
 1001b74:	1009883a 	mov	r4,r2
 1001b78:	10017740 	call	1001774 <lcdWriteData>
		lcdWriteData((x + HLPEN) >> 8);
 1001b7c:	e0fffc0b 	ldhu	r3,-16(fp)
 1001b80:	d0a01703 	ldbu	r2,-32676(gp)
 1001b84:	10803fcc 	andi	r2,r2,255
 1001b88:	1885883a 	add	r2,r3,r2
 1001b8c:	1005d23a 	srai	r2,r2,8
 1001b90:	10bfffcc 	andi	r2,r2,65535
 1001b94:	1009883a 	mov	r4,r2
 1001b98:	10017740 	call	1001774 <lcdWriteData>
		lcdWriteData((x + HLPEN) & 0x00ff);
 1001b9c:	d0a01703 	ldbu	r2,-32676(gp)
 1001ba0:	10c03fcc 	andi	r3,r2,255
 1001ba4:	e0bffc0b 	ldhu	r2,-16(fp)
 1001ba8:	1885883a 	add	r2,r3,r2
 1001bac:	10bfffcc 	andi	r2,r2,65535
 1001bb0:	10803fcc 	andi	r2,r2,255
 1001bb4:	1009883a 	mov	r4,r2
 1001bb8:	10017740 	call	1001774 <lcdWriteData>

		lcdWriteCommand(0x002B);
 1001bbc:	01000ac4 	movi	r4,43
 1001bc0:	100173c0 	call	100173c <lcdWriteCommand>
		lcdWriteData(ys >> 8);
 1001bc4:	e0bffd0b 	ldhu	r2,-12(fp)
 1001bc8:	1004d23a 	srli	r2,r2,8
 1001bcc:	10bfffcc 	andi	r2,r2,65535
 1001bd0:	1009883a 	mov	r4,r2
 1001bd4:	10017740 	call	1001774 <lcdWriteData>
		lcdWriteData(ys & 0x00ff);
 1001bd8:	e0bffd0b 	ldhu	r2,-12(fp)
 1001bdc:	10803fcc 	andi	r2,r2,255
 1001be0:	1009883a 	mov	r4,r2
 1001be4:	10017740 	call	1001774 <lcdWriteData>
		lcdWriteData(ye >> 8);
 1001be8:	e0bffe0b 	ldhu	r2,-8(fp)
 1001bec:	1004d23a 	srli	r2,r2,8
 1001bf0:	10bfffcc 	andi	r2,r2,65535
 1001bf4:	1009883a 	mov	r4,r2
 1001bf8:	10017740 	call	1001774 <lcdWriteData>
		lcdWriteData(ye & 0x00ff);
 1001bfc:	e0bffe0b 	ldhu	r2,-8(fp)
 1001c00:	10803fcc 	andi	r2,r2,255
 1001c04:	1009883a 	mov	r4,r2
 1001c08:	10017740 	call	1001774 <lcdWriteData>

		cnt = (ye - ys + 1) * (HLPEN + 1);
 1001c0c:	e0fffe0b 	ldhu	r3,-8(fp)
 1001c10:	e0bffd0b 	ldhu	r2,-12(fp)
 1001c14:	1885c83a 	sub	r2,r3,r2
 1001c18:	10800044 	addi	r2,r2,1
 1001c1c:	1007883a 	mov	r3,r2
 1001c20:	d0a01703 	ldbu	r2,-32676(gp)
 1001c24:	10803fcc 	andi	r2,r2,255
 1001c28:	10800044 	addi	r2,r2,1
 1001c2c:	1885383a 	mul	r2,r3,r2
 1001c30:	e0bffb0d 	sth	r2,-20(fp)
		lcdWriteCommand(0x002C);
 1001c34:	01000b04 	movi	r4,44
 1001c38:	100173c0 	call	100173c <lcdWriteCommand>
		for (i = 0; i < cnt; i++)
 1001c3c:	e03ffa15 	stw	zero,-24(fp)
 1001c40:	00000606 	br	1001c5c <lcdDrawVerLine+0x154>
			lcdWriteData(color);
 1001c44:	e0bfff0b 	ldhu	r2,-4(fp)
 1001c48:	1009883a 	mov	r4,r2
 1001c4c:	10017740 	call	1001774 <lcdWriteData>
		lcdWriteData(ye >> 8);
		lcdWriteData(ye & 0x00ff);

		cnt = (ye - ys + 1) * (HLPEN + 1);
		lcdWriteCommand(0x002C);
		for (i = 0; i < cnt; i++)
 1001c50:	e0bffa17 	ldw	r2,-24(fp)
 1001c54:	10800044 	addi	r2,r2,1
 1001c58:	e0bffa15 	stw	r2,-24(fp)
 1001c5c:	e0bffb0b 	ldhu	r2,-20(fp)
 1001c60:	e0fffa17 	ldw	r3,-24(fp)
 1001c64:	18bff716 	blt	r3,r2,1001c44 <__alt_data_end+0xff801c44>
		cnt = (ye - ys) / CYCLE;
		for (i = 0; i < cnt; i++)
			lcdRectClear(x, ys + i * CYCLE, x + HLPEN,
					ys + i * CYCLE + DUTY - 1, color);
	}
}
 1001c68:	00002f06 	br	1001d28 <lcdDrawVerLine+0x220>
		cnt = (ye - ys + 1) * (HLPEN + 1);
		lcdWriteCommand(0x002C);
		for (i = 0; i < cnt; i++)
			lcdWriteData(color);
	} else {
		cnt = (ye - ys) / CYCLE;
 1001c6c:	e0fffe0b 	ldhu	r3,-8(fp)
 1001c70:	e0bffd0b 	ldhu	r2,-12(fp)
 1001c74:	1887c83a 	sub	r3,r3,r2
 1001c78:	d0a00043 	ldbu	r2,-32767(gp)
 1001c7c:	10803fcc 	andi	r2,r2,255
 1001c80:	1885283a 	div	r2,r3,r2
 1001c84:	e0bffb0d 	sth	r2,-20(fp)
		for (i = 0; i < cnt; i++)
 1001c88:	e03ffa15 	stw	zero,-24(fp)
 1001c8c:	00002306 	br	1001d1c <lcdDrawVerLine+0x214>
			lcdRectClear(x, ys + i * CYCLE, x + HLPEN,
 1001c90:	e13ffc0b 	ldhu	r4,-16(fp)
 1001c94:	d0a00043 	ldbu	r2,-32767(gp)
 1001c98:	10803fcc 	andi	r2,r2,255
 1001c9c:	e0fffa17 	ldw	r3,-24(fp)
 1001ca0:	10c5383a 	mul	r2,r2,r3
 1001ca4:	1007883a 	mov	r3,r2
 1001ca8:	e0bffd0b 	ldhu	r2,-12(fp)
 1001cac:	1885883a 	add	r2,r3,r2
 1001cb0:	117fffcc 	andi	r5,r2,65535
 1001cb4:	d0a01703 	ldbu	r2,-32676(gp)
 1001cb8:	10c03fcc 	andi	r3,r2,255
 1001cbc:	e0bffc0b 	ldhu	r2,-16(fp)
 1001cc0:	1885883a 	add	r2,r3,r2
 1001cc4:	10ffffcc 	andi	r3,r2,65535
 1001cc8:	d0a00043 	ldbu	r2,-32767(gp)
 1001ccc:	10803fcc 	andi	r2,r2,255
 1001cd0:	e1bffa17 	ldw	r6,-24(fp)
 1001cd4:	1185383a 	mul	r2,r2,r6
 1001cd8:	100d883a 	mov	r6,r2
 1001cdc:	e0bffd0b 	ldhu	r2,-12(fp)
 1001ce0:	3085883a 	add	r2,r6,r2
 1001ce4:	100d883a 	mov	r6,r2
 1001ce8:	d0a00083 	ldbu	r2,-32766(gp)
 1001cec:	10803fcc 	andi	r2,r2,255
 1001cf0:	3085883a 	add	r2,r6,r2
 1001cf4:	10bfffc4 	addi	r2,r2,-1
 1001cf8:	11bfffcc 	andi	r6,r2,65535
 1001cfc:	e0bfff0b 	ldhu	r2,-4(fp)
 1001d00:	d8800015 	stw	r2,0(sp)
 1001d04:	300f883a 	mov	r7,r6
 1001d08:	180d883a 	mov	r6,r3
 1001d0c:	10019640 	call	1001964 <lcdRectClear>
		lcdWriteCommand(0x002C);
		for (i = 0; i < cnt; i++)
			lcdWriteData(color);
	} else {
		cnt = (ye - ys) / CYCLE;
		for (i = 0; i < cnt; i++)
 1001d10:	e0bffa17 	ldw	r2,-24(fp)
 1001d14:	10800044 	addi	r2,r2,1
 1001d18:	e0bffa15 	stw	r2,-24(fp)
 1001d1c:	e0bffb0b 	ldhu	r2,-20(fp)
 1001d20:	e0fffa17 	ldw	r3,-24(fp)
 1001d24:	18bfda16 	blt	r3,r2,1001c90 <__alt_data_end+0xff801c90>
			lcdRectClear(x, ys + i * CYCLE, x + HLPEN,
					ys + i * CYCLE + DUTY - 1, color);
	}
}
 1001d28:	0001883a 	nop
 1001d2c:	e037883a 	mov	sp,fp
 1001d30:	dfc00117 	ldw	ra,4(sp)
 1001d34:	df000017 	ldw	fp,0(sp)
 1001d38:	dec00204 	addi	sp,sp,8
 1001d3c:	f800283a 	ret

01001d40 <lcdDrawHorLine>:

//
void lcdDrawHorLine(u16 y, u16 xs, u16 xe, u16 color) {
 1001d40:	defff704 	addi	sp,sp,-36
 1001d44:	dfc00815 	stw	ra,32(sp)
 1001d48:	df000715 	stw	fp,28(sp)
 1001d4c:	df000704 	addi	fp,sp,28
 1001d50:	2011883a 	mov	r8,r4
 1001d54:	2809883a 	mov	r4,r5
 1001d58:	3007883a 	mov	r3,r6
 1001d5c:	3805883a 	mov	r2,r7
 1001d60:	e23ffc0d 	sth	r8,-16(fp)
 1001d64:	e13ffd0d 	sth	r4,-12(fp)
 1001d68:	e0fffe0d 	sth	r3,-8(fp)
 1001d6c:	e0bfff0d 	sth	r2,-4(fp)
	u16 cnt = 0;
 1001d70:	e03ffb0d 	sth	zero,-20(fp)
	int i = 0;
 1001d74:	e03ffa15 	stw	zero,-24(fp)
	if (LINEMODE == 1) {
 1001d78:	d0a00003 	ldbu	r2,-32768(gp)
 1001d7c:	10803fcc 	andi	r2,r2,255
 1001d80:	10800058 	cmpnei	r2,r2,1
 1001d84:	1000471e 	bne	r2,zero,1001ea4 <lcdDrawHorLine+0x164>
		lcdWriteCommand(0x002A);
 1001d88:	01000a84 	movi	r4,42
 1001d8c:	100173c0 	call	100173c <lcdWriteCommand>
		lcdWriteData(xs >> 8);
 1001d90:	e0bffd0b 	ldhu	r2,-12(fp)
 1001d94:	1004d23a 	srli	r2,r2,8
 1001d98:	10bfffcc 	andi	r2,r2,65535
 1001d9c:	1009883a 	mov	r4,r2
 1001da0:	10017740 	call	1001774 <lcdWriteData>
		lcdWriteData(xs & 0x00ff);
 1001da4:	e0bffd0b 	ldhu	r2,-12(fp)
 1001da8:	10803fcc 	andi	r2,r2,255
 1001dac:	1009883a 	mov	r4,r2
 1001db0:	10017740 	call	1001774 <lcdWriteData>
		lcdWriteData(xe >> 8);
 1001db4:	e0bffe0b 	ldhu	r2,-8(fp)
 1001db8:	1004d23a 	srli	r2,r2,8
 1001dbc:	10bfffcc 	andi	r2,r2,65535
 1001dc0:	1009883a 	mov	r4,r2
 1001dc4:	10017740 	call	1001774 <lcdWriteData>
		lcdWriteData(xe & 0x00ff);
 1001dc8:	e0bffe0b 	ldhu	r2,-8(fp)
 1001dcc:	10803fcc 	andi	r2,r2,255
 1001dd0:	1009883a 	mov	r4,r2
 1001dd4:	10017740 	call	1001774 <lcdWriteData>

		lcdWriteCommand(0x002B);
 1001dd8:	01000ac4 	movi	r4,43
 1001ddc:	100173c0 	call	100173c <lcdWriteCommand>
		lcdWriteData(y >> 8);
 1001de0:	e0bffc0b 	ldhu	r2,-16(fp)
 1001de4:	1004d23a 	srli	r2,r2,8
 1001de8:	10bfffcc 	andi	r2,r2,65535
 1001dec:	1009883a 	mov	r4,r2
 1001df0:	10017740 	call	1001774 <lcdWriteData>
		lcdWriteData(y & 0x00ff);
 1001df4:	e0bffc0b 	ldhu	r2,-16(fp)
 1001df8:	10803fcc 	andi	r2,r2,255
 1001dfc:	1009883a 	mov	r4,r2
 1001e00:	10017740 	call	1001774 <lcdWriteData>
		lcdWriteData((y + HLPEN) >> 8);
 1001e04:	e0fffc0b 	ldhu	r3,-16(fp)
 1001e08:	d0a01703 	ldbu	r2,-32676(gp)
 1001e0c:	10803fcc 	andi	r2,r2,255
 1001e10:	1885883a 	add	r2,r3,r2
 1001e14:	1005d23a 	srai	r2,r2,8
 1001e18:	10bfffcc 	andi	r2,r2,65535
 1001e1c:	1009883a 	mov	r4,r2
 1001e20:	10017740 	call	1001774 <lcdWriteData>
		lcdWriteData((y + HLPEN) & 0x00ff);
 1001e24:	d0a01703 	ldbu	r2,-32676(gp)
 1001e28:	10c03fcc 	andi	r3,r2,255
 1001e2c:	e0bffc0b 	ldhu	r2,-16(fp)
 1001e30:	1885883a 	add	r2,r3,r2
 1001e34:	10bfffcc 	andi	r2,r2,65535
 1001e38:	10803fcc 	andi	r2,r2,255
 1001e3c:	1009883a 	mov	r4,r2
 1001e40:	10017740 	call	1001774 <lcdWriteData>

		cnt = (xe - xs + 1) * (HLPEN + 1);
 1001e44:	e0fffe0b 	ldhu	r3,-8(fp)
 1001e48:	e0bffd0b 	ldhu	r2,-12(fp)
 1001e4c:	1885c83a 	sub	r2,r3,r2
 1001e50:	10800044 	addi	r2,r2,1
 1001e54:	1007883a 	mov	r3,r2
 1001e58:	d0a01703 	ldbu	r2,-32676(gp)
 1001e5c:	10803fcc 	andi	r2,r2,255
 1001e60:	10800044 	addi	r2,r2,1
 1001e64:	1885383a 	mul	r2,r3,r2
 1001e68:	e0bffb0d 	sth	r2,-20(fp)
		lcdWriteCommand(0x002C);
 1001e6c:	01000b04 	movi	r4,44
 1001e70:	100173c0 	call	100173c <lcdWriteCommand>
		for (i = 0; i < cnt; i++)
 1001e74:	e03ffa15 	stw	zero,-24(fp)
 1001e78:	00000606 	br	1001e94 <lcdDrawHorLine+0x154>
			lcdWriteData(color);
 1001e7c:	e0bfff0b 	ldhu	r2,-4(fp)
 1001e80:	1009883a 	mov	r4,r2
 1001e84:	10017740 	call	1001774 <lcdWriteData>
		lcdWriteData((y + HLPEN) >> 8);
		lcdWriteData((y + HLPEN) & 0x00ff);

		cnt = (xe - xs + 1) * (HLPEN + 1);
		lcdWriteCommand(0x002C);
		for (i = 0; i < cnt; i++)
 1001e88:	e0bffa17 	ldw	r2,-24(fp)
 1001e8c:	10800044 	addi	r2,r2,1
 1001e90:	e0bffa15 	stw	r2,-24(fp)
 1001e94:	e0bffb0b 	ldhu	r2,-20(fp)
 1001e98:	e0fffa17 	ldw	r3,-24(fp)
 1001e9c:	18bff716 	blt	r3,r2,1001e7c <__alt_data_end+0xff801e7c>
		cnt = (xe - xs) / CYCLE;
		for (i = 0; i < cnt; i++)
			lcdRectClear(xs + i * CYCLE, y, xs + i * CYCLE + DUTY - 1,
					y + HLPEN, color);
	}
}
 1001ea0:	00002e06 	br	1001f5c <lcdDrawHorLine+0x21c>
		cnt = (xe - xs + 1) * (HLPEN + 1);
		lcdWriteCommand(0x002C);
		for (i = 0; i < cnt; i++)
			lcdWriteData(color);
	} else {
		cnt = (xe - xs) / CYCLE;
 1001ea4:	e0fffe0b 	ldhu	r3,-8(fp)
 1001ea8:	e0bffd0b 	ldhu	r2,-12(fp)
 1001eac:	1887c83a 	sub	r3,r3,r2
 1001eb0:	d0a00043 	ldbu	r2,-32767(gp)
 1001eb4:	10803fcc 	andi	r2,r2,255
 1001eb8:	1885283a 	div	r2,r3,r2
 1001ebc:	e0bffb0d 	sth	r2,-20(fp)
		for (i = 0; i < cnt; i++)
 1001ec0:	e03ffa15 	stw	zero,-24(fp)
 1001ec4:	00002206 	br	1001f50 <lcdDrawHorLine+0x210>
			lcdRectClear(xs + i * CYCLE, y, xs + i * CYCLE + DUTY - 1,
 1001ec8:	d0a00043 	ldbu	r2,-32767(gp)
 1001ecc:	10803fcc 	andi	r2,r2,255
 1001ed0:	e0fffa17 	ldw	r3,-24(fp)
 1001ed4:	10c5383a 	mul	r2,r2,r3
 1001ed8:	1007883a 	mov	r3,r2
 1001edc:	e0bffd0b 	ldhu	r2,-12(fp)
 1001ee0:	1885883a 	add	r2,r3,r2
 1001ee4:	113fffcc 	andi	r4,r2,65535
 1001ee8:	e17ffc0b 	ldhu	r5,-16(fp)
 1001eec:	d0a00043 	ldbu	r2,-32767(gp)
 1001ef0:	10803fcc 	andi	r2,r2,255
 1001ef4:	e0fffa17 	ldw	r3,-24(fp)
 1001ef8:	10c5383a 	mul	r2,r2,r3
 1001efc:	1007883a 	mov	r3,r2
 1001f00:	e0bffd0b 	ldhu	r2,-12(fp)
 1001f04:	1885883a 	add	r2,r3,r2
 1001f08:	1007883a 	mov	r3,r2
 1001f0c:	d0a00083 	ldbu	r2,-32766(gp)
 1001f10:	10803fcc 	andi	r2,r2,255
 1001f14:	1885883a 	add	r2,r3,r2
 1001f18:	10bfffc4 	addi	r2,r2,-1
 1001f1c:	11bfffcc 	andi	r6,r2,65535
 1001f20:	d0a01703 	ldbu	r2,-32676(gp)
 1001f24:	10c03fcc 	andi	r3,r2,255
 1001f28:	e0bffc0b 	ldhu	r2,-16(fp)
 1001f2c:	1885883a 	add	r2,r3,r2
 1001f30:	10ffffcc 	andi	r3,r2,65535
 1001f34:	e0bfff0b 	ldhu	r2,-4(fp)
 1001f38:	d8800015 	stw	r2,0(sp)
 1001f3c:	180f883a 	mov	r7,r3
 1001f40:	10019640 	call	1001964 <lcdRectClear>
		lcdWriteCommand(0x002C);
		for (i = 0; i < cnt; i++)
			lcdWriteData(color);
	} else {
		cnt = (xe - xs) / CYCLE;
		for (i = 0; i < cnt; i++)
 1001f44:	e0bffa17 	ldw	r2,-24(fp)
 1001f48:	10800044 	addi	r2,r2,1
 1001f4c:	e0bffa15 	stw	r2,-24(fp)
 1001f50:	e0bffb0b 	ldhu	r2,-20(fp)
 1001f54:	e0fffa17 	ldw	r3,-24(fp)
 1001f58:	18bfdb16 	blt	r3,r2,1001ec8 <__alt_data_end+0xff801ec8>
			lcdRectClear(xs + i * CYCLE, y, xs + i * CYCLE + DUTY - 1,
					y + HLPEN, color);
	}
}
 1001f5c:	0001883a 	nop
 1001f60:	e037883a 	mov	sp,fp
 1001f64:	dfc00117 	ldw	ra,4(sp)
 1001f68:	df000017 	ldw	fp,0(sp)
 1001f6c:	dec00204 	addi	sp,sp,8
 1001f70:	f800283a 	ret

01001f74 <lcdDrawLine>:
void lcdDrawLine(u16 xs, u16 ys, u16 xe, u16 ye, u16 color) {
 1001f74:	deffef04 	addi	sp,sp,-68
 1001f78:	dfc01015 	stw	ra,64(sp)
 1001f7c:	df000f15 	stw	fp,60(sp)
 1001f80:	df000f04 	addi	fp,sp,60
 1001f84:	2011883a 	mov	r8,r4
 1001f88:	3009883a 	mov	r4,r6
 1001f8c:	3807883a 	mov	r3,r7
 1001f90:	e0800217 	ldw	r2,8(fp)
 1001f94:	e23ffb0d 	sth	r8,-20(fp)
 1001f98:	e17ffc0d 	sth	r5,-16(fp)
 1001f9c:	e13ffd0d 	sth	r4,-12(fp)
 1001fa0:	e0fffe0d 	sth	r3,-8(fp)
 1001fa4:	e0bfff0d 	sth	r2,-4(fp)
	u16 t;
	int xerr = 0, yerr = 0, delta_x, delta_y, distance, xcha, ycha;
 1001fa8:	e03ff215 	stw	zero,-56(fp)
 1001fac:	e03ff315 	stw	zero,-52(fp)
	int incx, incy;
	/*  compute the distance in both directions */
	delta_x = xe - xs;
 1001fb0:	e0fffd0b 	ldhu	r3,-12(fp)
 1001fb4:	e0bffb0b 	ldhu	r2,-20(fp)
 1001fb8:	1885c83a 	sub	r2,r3,r2
 1001fbc:	e0bff915 	stw	r2,-28(fp)
	delta_y = ye - ys;
 1001fc0:	e0fffe0b 	ldhu	r3,-8(fp)
 1001fc4:	e0bffc0b 	ldhu	r2,-16(fp)
 1001fc8:	1885c83a 	sub	r2,r3,r2
 1001fcc:	e0bffa15 	stw	r2,-24(fp)

	/* compute  the direction of the increment ,
	 an increment of "0" means either a vertical or horizontal lines */

	if (delta_x > 0)
 1001fd0:	e0bff917 	ldw	r2,-28(fp)
 1001fd4:	0080030e 	bge	zero,r2,1001fe4 <lcdDrawLine+0x70>
		incx = 1;
 1001fd8:	00800044 	movi	r2,1
 1001fdc:	e0bff715 	stw	r2,-36(fp)
 1001fe0:	00000606 	br	1001ffc <lcdDrawLine+0x88>
	else if (delta_x == 0)
 1001fe4:	e0bff917 	ldw	r2,-28(fp)
 1001fe8:	1000021e 	bne	r2,zero,1001ff4 <lcdDrawLine+0x80>
		incx = 0;
 1001fec:	e03ff715 	stw	zero,-36(fp)
 1001ff0:	00000206 	br	1001ffc <lcdDrawLine+0x88>
	else
		incx = -1;
 1001ff4:	00bfffc4 	movi	r2,-1
 1001ff8:	e0bff715 	stw	r2,-36(fp)

	if (delta_y > 0)
 1001ffc:	e0bffa17 	ldw	r2,-24(fp)
 1002000:	0080030e 	bge	zero,r2,1002010 <lcdDrawLine+0x9c>
		incy = 1;
 1002004:	00800044 	movi	r2,1
 1002008:	e0bff815 	stw	r2,-32(fp)
 100200c:	00000606 	br	1002028 <lcdDrawLine+0xb4>
	else if (delta_y == 0)
 1002010:	e0bffa17 	ldw	r2,-24(fp)
 1002014:	1000021e 	bne	r2,zero,1002020 <lcdDrawLine+0xac>
		incy = 0;
 1002018:	e03ff815 	stw	zero,-32(fp)
 100201c:	00000206 	br	1002028 <lcdDrawLine+0xb4>
	else
		incy = -1;
 1002020:	00bfffc4 	movi	r2,-1
 1002024:	e0bff815 	stw	r2,-32(fp)

	/*  determine which distance is greater */
	delta_x = delta_x < 0 ? -delta_x : delta_x;
 1002028:	e0bff917 	ldw	r2,-28(fp)
 100202c:	1000010e 	bge	r2,zero,1002034 <lcdDrawLine+0xc0>
 1002030:	0085c83a 	sub	r2,zero,r2
 1002034:	e0bff915 	stw	r2,-28(fp)
	delta_y = delta_y < 0 ? -delta_y : delta_y;
 1002038:	e0bffa17 	ldw	r2,-24(fp)
 100203c:	1000010e 	bge	r2,zero,1002044 <lcdDrawLine+0xd0>
 1002040:	0085c83a 	sub	r2,zero,r2
 1002044:	e0bffa15 	stw	r2,-24(fp)

	if (delta_x > delta_y) {
 1002048:	e0bff917 	ldw	r2,-28(fp)
 100204c:	e0fffa17 	ldw	r3,-24(fp)
 1002050:	18800a0e 	bge	r3,r2,100207c <lcdDrawLine+0x108>
		distance = delta_x;
 1002054:	e0bff917 	ldw	r2,-28(fp)
 1002058:	e0bff415 	stw	r2,-48(fp)
		xcha = distance;
 100205c:	e0bff417 	ldw	r2,-48(fp)
 1002060:	e0bff515 	stw	r2,-44(fp)
		ycha = 0;
 1002064:	e03ff615 	stw	zero,-40(fp)
		yerr = -(distance >> 1);
 1002068:	e0bff417 	ldw	r2,-48(fp)
 100206c:	1005d07a 	srai	r2,r2,1
 1002070:	0085c83a 	sub	r2,zero,r2
 1002074:	e0bff315 	stw	r2,-52(fp)
 1002078:	00000906 	br	10020a0 <lcdDrawLine+0x12c>
	} else {
		distance = delta_y;
 100207c:	e0bffa17 	ldw	r2,-24(fp)
 1002080:	e0bff415 	stw	r2,-48(fp)
		ycha = distance;
 1002084:	e0bff417 	ldw	r2,-48(fp)
 1002088:	e0bff615 	stw	r2,-40(fp)
		xcha = 0;
 100208c:	e03ff515 	stw	zero,-44(fp)
		xerr = -(distance >> 1);
 1002090:	e0bff417 	ldw	r2,-48(fp)
 1002094:	1005d07a 	srai	r2,r2,1
 1002098:	0085c83a 	sub	r2,zero,r2
 100209c:	e0bff215 	stw	r2,-56(fp)
	}

	/* draw the line */
	for (t = 0; t <= distance; t++) {
 10020a0:	e03ff10d 	sth	zero,-60(fp)
 10020a4:	00003f06 	br	10021a4 <lcdDrawLine+0x230>
		if (LINEMODE == 1)
 10020a8:	d0a00003 	ldbu	r2,-32768(gp)
 10020ac:	10803fcc 	andi	r2,r2,255
 10020b0:	10800058 	cmpnei	r2,r2,1
 10020b4:	1000081e 	bne	r2,zero,10020d8 <lcdDrawLine+0x164>
			lcdDrawPoint(xs, ys, color);
 10020b8:	e0bffb0b 	ldhu	r2,-20(fp)
 10020bc:	e0fffc0b 	ldhu	r3,-16(fp)
 10020c0:	e13fff0b 	ldhu	r4,-4(fp)
 10020c4:	200d883a 	mov	r6,r4
 10020c8:	180b883a 	mov	r5,r3
 10020cc:	1009883a 	mov	r4,r2
 10020d0:	10018ac0 	call	10018ac <lcdDrawPoint>
 10020d4:	00001006 	br	1002118 <lcdDrawLine+0x1a4>
		else if (t % CYCLE < DUTY)
 10020d8:	e0bff10b 	ldhu	r2,-60(fp)
 10020dc:	d0e00043 	ldbu	r3,-32767(gp)
 10020e0:	18c03fcc 	andi	r3,r3,255
 10020e4:	10c9283a 	div	r4,r2,r3
 10020e8:	20c7383a 	mul	r3,r4,r3
 10020ec:	10c7c83a 	sub	r3,r2,r3
 10020f0:	d0a00083 	ldbu	r2,-32766(gp)
 10020f4:	10803fcc 	andi	r2,r2,255
 10020f8:	1880070e 	bge	r3,r2,1002118 <lcdDrawLine+0x1a4>
			lcdDrawPoint(xs, ys, color);
 10020fc:	e0bffb0b 	ldhu	r2,-20(fp)
 1002100:	e0fffc0b 	ldhu	r3,-16(fp)
 1002104:	e13fff0b 	ldhu	r4,-4(fp)
 1002108:	200d883a 	mov	r6,r4
 100210c:	180b883a 	mov	r5,r3
 1002110:	1009883a 	mov	r4,r2
 1002114:	10018ac0 	call	10018ac <lcdDrawPoint>

		xerr += delta_x;
 1002118:	e0fff217 	ldw	r3,-56(fp)
 100211c:	e0bff917 	ldw	r2,-28(fp)
 1002120:	1885883a 	add	r2,r3,r2
 1002124:	e0bff215 	stw	r2,-56(fp)
		yerr += delta_y;
 1002128:	e0fff317 	ldw	r3,-52(fp)
 100212c:	e0bffa17 	ldw	r2,-24(fp)
 1002130:	1885883a 	add	r2,r3,r2
 1002134:	e0bff315 	stw	r2,-52(fp)
		if (xerr >= xcha) {
 1002138:	e0fff217 	ldw	r3,-56(fp)
 100213c:	e0bff517 	ldw	r2,-44(fp)
 1002140:	18800916 	blt	r3,r2,1002168 <lcdDrawLine+0x1f4>
			xerr -= distance;
 1002144:	e0fff217 	ldw	r3,-56(fp)
 1002148:	e0bff417 	ldw	r2,-48(fp)
 100214c:	1885c83a 	sub	r2,r3,r2
 1002150:	e0bff215 	stw	r2,-56(fp)
			xs += incx;
 1002154:	e0bff717 	ldw	r2,-36(fp)
 1002158:	1007883a 	mov	r3,r2
 100215c:	e0bffb0b 	ldhu	r2,-20(fp)
 1002160:	1885883a 	add	r2,r3,r2
 1002164:	e0bffb0d 	sth	r2,-20(fp)
		}
		if (yerr >= ycha) {
 1002168:	e0fff317 	ldw	r3,-52(fp)
 100216c:	e0bff617 	ldw	r2,-40(fp)
 1002170:	18800916 	blt	r3,r2,1002198 <lcdDrawLine+0x224>
			yerr -= distance;
 1002174:	e0fff317 	ldw	r3,-52(fp)
 1002178:	e0bff417 	ldw	r2,-48(fp)
 100217c:	1885c83a 	sub	r2,r3,r2
 1002180:	e0bff315 	stw	r2,-52(fp)
			ys += incy;
 1002184:	e0bff817 	ldw	r2,-32(fp)
 1002188:	1007883a 	mov	r3,r2
 100218c:	e0bffc0b 	ldhu	r2,-16(fp)
 1002190:	1885883a 	add	r2,r3,r2
 1002194:	e0bffc0d 	sth	r2,-16(fp)
		xcha = 0;
		xerr = -(distance >> 1);
	}

	/* draw the line */
	for (t = 0; t <= distance; t++) {
 1002198:	e0bff10b 	ldhu	r2,-60(fp)
 100219c:	10800044 	addi	r2,r2,1
 10021a0:	e0bff10d 	sth	r2,-60(fp)
 10021a4:	e0bff10b 	ldhu	r2,-60(fp)
 10021a8:	e0fff417 	ldw	r3,-48(fp)
 10021ac:	18bfbe0e 	bge	r3,r2,10020a8 <__alt_data_end+0xff8020a8>
		if (yerr >= ycha) {
			yerr -= distance;
			ys += incy;
		}
	}
}
 10021b0:	0001883a 	nop
 10021b4:	e037883a 	mov	sp,fp
 10021b8:	dfc00117 	ldw	ra,4(sp)
 10021bc:	df000017 	ldw	fp,0(sp)
 10021c0:	dec00204 	addi	sp,sp,8
 10021c4:	f800283a 	ret

010021c8 <lcdDrawPic>:

void lcdDrawPic(u16 xs, u16 ys, u16 row, u16 col, u16 fore, u16 back,
		volatile const u8*pcode) {
 10021c8:	defff304 	addi	sp,sp,-52
 10021cc:	dfc00c15 	stw	ra,48(sp)
 10021d0:	df000b15 	stw	fp,44(sp)
 10021d4:	df000b04 	addi	fp,sp,44
 10021d8:	2013883a 	mov	r9,r4
 10021dc:	2811883a 	mov	r8,r5
 10021e0:	300b883a 	mov	r5,r6
 10021e4:	3809883a 	mov	r4,r7
 10021e8:	e0c00217 	ldw	r3,8(fp)
 10021ec:	e0800317 	ldw	r2,12(fp)
 10021f0:	e27ffa0d 	sth	r9,-24(fp)
 10021f4:	e23ffb0d 	sth	r8,-20(fp)
 10021f8:	e17ffc0d 	sth	r5,-16(fp)
 10021fc:	e13ffd0d 	sth	r4,-12(fp)
 1002200:	e0fffe0d 	sth	r3,-8(fp)
 1002204:	e0bfff0d 	sth	r2,-4(fp)
	u8 MULX = 1, MULY = 1;
 1002208:	00800044 	movi	r2,1
 100220c:	e0bff705 	stb	r2,-36(fp)
 1002210:	00800044 	movi	r2,1
 1002214:	e0bff745 	stb	r2,-35(fp)
	int i, j;
	u8 b;
	u32 pos;
	lcdWriteCommand(0x002A);
 1002218:	01000a84 	movi	r4,42
 100221c:	100173c0 	call	100173c <lcdWriteCommand>
	lcdWriteData(xs >> 8);
 1002220:	e0bffa0b 	ldhu	r2,-24(fp)
 1002224:	1004d23a 	srli	r2,r2,8
 1002228:	10bfffcc 	andi	r2,r2,65535
 100222c:	1009883a 	mov	r4,r2
 1002230:	10017740 	call	1001774 <lcdWriteData>
	lcdWriteData(xs & 0x00ff);
 1002234:	e0bffa0b 	ldhu	r2,-24(fp)
 1002238:	10803fcc 	andi	r2,r2,255
 100223c:	1009883a 	mov	r4,r2
 1002240:	10017740 	call	1001774 <lcdWriteData>
	lcdWriteData((xs + col * MULX - 1) >> 8);
 1002244:	e0fffa0b 	ldhu	r3,-24(fp)
 1002248:	e13ffd0b 	ldhu	r4,-12(fp)
 100224c:	e0bff703 	ldbu	r2,-36(fp)
 1002250:	2085383a 	mul	r2,r4,r2
 1002254:	1885883a 	add	r2,r3,r2
 1002258:	10bfffc4 	addi	r2,r2,-1
 100225c:	1005d23a 	srai	r2,r2,8
 1002260:	10bfffcc 	andi	r2,r2,65535
 1002264:	1009883a 	mov	r4,r2
 1002268:	10017740 	call	1001774 <lcdWriteData>
	lcdWriteData((xs + col * MULX - 1) & 0x00ff);
 100226c:	e0fff703 	ldbu	r3,-36(fp)
 1002270:	e0bffd0b 	ldhu	r2,-12(fp)
 1002274:	1885383a 	mul	r2,r3,r2
 1002278:	1007883a 	mov	r3,r2
 100227c:	e0bffa0b 	ldhu	r2,-24(fp)
 1002280:	1885883a 	add	r2,r3,r2
 1002284:	10bfffc4 	addi	r2,r2,-1
 1002288:	10bfffcc 	andi	r2,r2,65535
 100228c:	10803fcc 	andi	r2,r2,255
 1002290:	1009883a 	mov	r4,r2
 1002294:	10017740 	call	1001774 <lcdWriteData>

	lcdWriteCommand(0x002B);
 1002298:	01000ac4 	movi	r4,43
 100229c:	100173c0 	call	100173c <lcdWriteCommand>
	lcdWriteData(ys >> 8);
 10022a0:	e0bffb0b 	ldhu	r2,-20(fp)
 10022a4:	1004d23a 	srli	r2,r2,8
 10022a8:	10bfffcc 	andi	r2,r2,65535
 10022ac:	1009883a 	mov	r4,r2
 10022b0:	10017740 	call	1001774 <lcdWriteData>
	lcdWriteData(ys & 0x00ff);
 10022b4:	e0bffb0b 	ldhu	r2,-20(fp)
 10022b8:	10803fcc 	andi	r2,r2,255
 10022bc:	1009883a 	mov	r4,r2
 10022c0:	10017740 	call	1001774 <lcdWriteData>
	lcdWriteData((ys + row * MULY - 1) >> 8);
 10022c4:	e0fffb0b 	ldhu	r3,-20(fp)
 10022c8:	e13ffc0b 	ldhu	r4,-16(fp)
 10022cc:	e0bff743 	ldbu	r2,-35(fp)
 10022d0:	2085383a 	mul	r2,r4,r2
 10022d4:	1885883a 	add	r2,r3,r2
 10022d8:	10bfffc4 	addi	r2,r2,-1
 10022dc:	1005d23a 	srai	r2,r2,8
 10022e0:	10bfffcc 	andi	r2,r2,65535
 10022e4:	1009883a 	mov	r4,r2
 10022e8:	10017740 	call	1001774 <lcdWriteData>
	lcdWriteData((ys + row * MULY - 1) & 0x00ff);
 10022ec:	e0fff743 	ldbu	r3,-35(fp)
 10022f0:	e0bffc0b 	ldhu	r2,-16(fp)
 10022f4:	1885383a 	mul	r2,r3,r2
 10022f8:	1007883a 	mov	r3,r2
 10022fc:	e0bffb0b 	ldhu	r2,-20(fp)
 1002300:	1885883a 	add	r2,r3,r2
 1002304:	10bfffc4 	addi	r2,r2,-1
 1002308:	10bfffcc 	andi	r2,r2,65535
 100230c:	10803fcc 	andi	r2,r2,255
 1002310:	1009883a 	mov	r4,r2
 1002314:	10017740 	call	1001774 <lcdWriteData>

	lcdWriteCommand(0x002C);
 1002318:	01000b04 	movi	r4,44
 100231c:	100173c0 	call	100173c <lcdWriteCommand>
	for (i = 0; i < col * MULX; i++) {
 1002320:	e03ff515 	stw	zero,-44(fp)
 1002324:	00003306 	br	10023f4 <lcdDrawPic+0x22c>
		pos = (i / (8 * MULX)) * row;
 1002328:	e0bff703 	ldbu	r2,-36(fp)
 100232c:	100490fa 	slli	r2,r2,3
 1002330:	e0fff517 	ldw	r3,-44(fp)
 1002334:	1887283a 	div	r3,r3,r2
 1002338:	e0bffc0b 	ldhu	r2,-16(fp)
 100233c:	1885383a 	mul	r2,r3,r2
 1002340:	e0bff815 	stw	r2,-32(fp)

		b = 0x80 >> ((i % (8 * MULX)) / MULX);
 1002344:	e0bff703 	ldbu	r2,-36(fp)
 1002348:	100690fa 	slli	r3,r2,3
 100234c:	e0bff517 	ldw	r2,-44(fp)
 1002350:	10c9283a 	div	r4,r2,r3
 1002354:	20c7383a 	mul	r3,r4,r3
 1002358:	10c7c83a 	sub	r3,r2,r3
 100235c:	e0bff703 	ldbu	r2,-36(fp)
 1002360:	1885283a 	div	r2,r3,r2
 1002364:	00c02004 	movi	r3,128
 1002368:	1885d83a 	sra	r2,r3,r2
 100236c:	e0bff905 	stb	r2,-28(fp)
		for (j = 0; j < row * MULY; j++) {
 1002370:	e03ff615 	stw	zero,-40(fp)
 1002374:	00001706 	br	10023d4 <lcdDrawPic+0x20c>
			if ((*(pcode + pos + (j / MULY))) & b)
 1002378:	e0bff743 	ldbu	r2,-35(fp)
 100237c:	e0fff617 	ldw	r3,-40(fp)
 1002380:	1885283a 	div	r2,r3,r2
 1002384:	1007883a 	mov	r3,r2
 1002388:	e0bff817 	ldw	r2,-32(fp)
 100238c:	1885883a 	add	r2,r3,r2
 1002390:	e0c00417 	ldw	r3,16(fp)
 1002394:	1885883a 	add	r2,r3,r2
 1002398:	10c00003 	ldbu	r3,0(r2)
 100239c:	e0bff903 	ldbu	r2,-28(fp)
 10023a0:	1884703a 	and	r2,r3,r2
 10023a4:	10803fcc 	andi	r2,r2,255
 10023a8:	10000426 	beq	r2,zero,10023bc <lcdDrawPic+0x1f4>
				lcdWriteData(fore);
 10023ac:	e0bffe0b 	ldhu	r2,-8(fp)
 10023b0:	1009883a 	mov	r4,r2
 10023b4:	10017740 	call	1001774 <lcdWriteData>
 10023b8:	00000306 	br	10023c8 <lcdDrawPic+0x200>
			else
				lcdWriteData(back);
 10023bc:	e0bfff0b 	ldhu	r2,-4(fp)
 10023c0:	1009883a 	mov	r4,r2
 10023c4:	10017740 	call	1001774 <lcdWriteData>
	lcdWriteCommand(0x002C);
	for (i = 0; i < col * MULX; i++) {
		pos = (i / (8 * MULX)) * row;

		b = 0x80 >> ((i % (8 * MULX)) / MULX);
		for (j = 0; j < row * MULY; j++) {
 10023c8:	e0bff617 	ldw	r2,-40(fp)
 10023cc:	10800044 	addi	r2,r2,1
 10023d0:	e0bff615 	stw	r2,-40(fp)
 10023d4:	e0fffc0b 	ldhu	r3,-16(fp)
 10023d8:	e0bff743 	ldbu	r2,-35(fp)
 10023dc:	1885383a 	mul	r2,r3,r2
 10023e0:	e0fff617 	ldw	r3,-40(fp)
 10023e4:	18bfe416 	blt	r3,r2,1002378 <__alt_data_end+0xff802378>
	lcdWriteData(ys & 0x00ff);
	lcdWriteData((ys + row * MULY - 1) >> 8);
	lcdWriteData((ys + row * MULY - 1) & 0x00ff);

	lcdWriteCommand(0x002C);
	for (i = 0; i < col * MULX; i++) {
 10023e8:	e0bff517 	ldw	r2,-44(fp)
 10023ec:	10800044 	addi	r2,r2,1
 10023f0:	e0bff515 	stw	r2,-44(fp)
 10023f4:	e0fffd0b 	ldhu	r3,-12(fp)
 10023f8:	e0bff703 	ldbu	r2,-36(fp)
 10023fc:	1885383a 	mul	r2,r3,r2
 1002400:	e0fff517 	ldw	r3,-44(fp)
 1002404:	18bfc816 	blt	r3,r2,1002328 <__alt_data_end+0xff802328>
				lcdWriteData(fore);
			else
				lcdWriteData(back);
		}
	}
}
 1002408:	0001883a 	nop
 100240c:	e037883a 	mov	sp,fp
 1002410:	dfc00117 	ldw	ra,4(sp)
 1002414:	df000017 	ldw	fp,0(sp)
 1002418:	dec00204 	addi	sp,sp,8
 100241c:	f800283a 	ret

01002420 <lcdDrawRectan>:

//
void lcdDrawRectan(u16 xs, u16 ys, u16 len, u16 wid,u16 color)
{
 1002420:	defff904 	addi	sp,sp,-28
 1002424:	dfc00615 	stw	ra,24(sp)
 1002428:	df000515 	stw	fp,20(sp)
 100242c:	df000504 	addi	fp,sp,20
 1002430:	2011883a 	mov	r8,r4
 1002434:	3009883a 	mov	r4,r6
 1002438:	3807883a 	mov	r3,r7
 100243c:	e0800217 	ldw	r2,8(fp)
 1002440:	e23ffb0d 	sth	r8,-20(fp)
 1002444:	e17ffc0d 	sth	r5,-16(fp)
 1002448:	e13ffd0d 	sth	r4,-12(fp)
 100244c:	e0fffe0d 	sth	r3,-8(fp)
 1002450:	e0bfff0d 	sth	r2,-4(fp)
	lcdDrawVerLine(xs, ys, ys+wid, color);
 1002454:	e13ffb0b 	ldhu	r4,-20(fp)
 1002458:	e17ffc0b 	ldhu	r5,-16(fp)
 100245c:	e0fffc0b 	ldhu	r3,-16(fp)
 1002460:	e0bffe0b 	ldhu	r2,-8(fp)
 1002464:	1885883a 	add	r2,r3,r2
 1002468:	10bfffcc 	andi	r2,r2,65535
 100246c:	e0ffff0b 	ldhu	r3,-4(fp)
 1002470:	180f883a 	mov	r7,r3
 1002474:	100d883a 	mov	r6,r2
 1002478:	1001b080 	call	1001b08 <lcdDrawVerLine>
    lcdDrawVerLine(xs+len, ys, ys+wid, color);
 100247c:	e0fffb0b 	ldhu	r3,-20(fp)
 1002480:	e0bffd0b 	ldhu	r2,-12(fp)
 1002484:	1885883a 	add	r2,r3,r2
 1002488:	113fffcc 	andi	r4,r2,65535
 100248c:	e17ffc0b 	ldhu	r5,-16(fp)
 1002490:	e0fffc0b 	ldhu	r3,-16(fp)
 1002494:	e0bffe0b 	ldhu	r2,-8(fp)
 1002498:	1885883a 	add	r2,r3,r2
 100249c:	10bfffcc 	andi	r2,r2,65535
 10024a0:	e0ffff0b 	ldhu	r3,-4(fp)
 10024a4:	180f883a 	mov	r7,r3
 10024a8:	100d883a 	mov	r6,r2
 10024ac:	1001b080 	call	1001b08 <lcdDrawVerLine>
	lcdDrawHorLine(ys, xs, xs+len, color);
 10024b0:	e13ffc0b 	ldhu	r4,-16(fp)
 10024b4:	e17ffb0b 	ldhu	r5,-20(fp)
 10024b8:	e0fffb0b 	ldhu	r3,-20(fp)
 10024bc:	e0bffd0b 	ldhu	r2,-12(fp)
 10024c0:	1885883a 	add	r2,r3,r2
 10024c4:	10bfffcc 	andi	r2,r2,65535
 10024c8:	e0ffff0b 	ldhu	r3,-4(fp)
 10024cc:	180f883a 	mov	r7,r3
 10024d0:	100d883a 	mov	r6,r2
 10024d4:	1001d400 	call	1001d40 <lcdDrawHorLine>
	lcdDrawHorLine(ys+wid, xs, xs+len, color);
 10024d8:	e0fffc0b 	ldhu	r3,-16(fp)
 10024dc:	e0bffe0b 	ldhu	r2,-8(fp)
 10024e0:	1885883a 	add	r2,r3,r2
 10024e4:	113fffcc 	andi	r4,r2,65535
 10024e8:	e17ffb0b 	ldhu	r5,-20(fp)
 10024ec:	e0fffb0b 	ldhu	r3,-20(fp)
 10024f0:	e0bffd0b 	ldhu	r2,-12(fp)
 10024f4:	1885883a 	add	r2,r3,r2
 10024f8:	10bfffcc 	andi	r2,r2,65535
 10024fc:	e0ffff0b 	ldhu	r3,-4(fp)
 1002500:	180f883a 	mov	r7,r3
 1002504:	100d883a 	mov	r6,r2
 1002508:	1001d400 	call	1001d40 <lcdDrawHorLine>
}
 100250c:	0001883a 	nop
 1002510:	e037883a 	mov	sp,fp
 1002514:	dfc00117 	ldw	ra,4(sp)
 1002518:	df000017 	ldw	fp,0(sp)
 100251c:	dec00204 	addi	sp,sp,8
 1002520:	f800283a 	ret

01002524 <lcdDrawGrid>:

void lcdDrawGrid(u16 xs, u16 ys, u8 row, u8 col, u8 width, u16 color) {
 1002524:	defff604 	addi	sp,sp,-40
 1002528:	dfc00915 	stw	ra,36(sp)
 100252c:	df000815 	stw	fp,32(sp)
 1002530:	df000804 	addi	fp,sp,32
 1002534:	2013883a 	mov	r9,r4
 1002538:	2811883a 	mov	r8,r5
 100253c:	300b883a 	mov	r5,r6
 1002540:	3809883a 	mov	r4,r7
 1002544:	e0c00217 	ldw	r3,8(fp)
 1002548:	e0800317 	ldw	r2,12(fp)
 100254c:	e27ffa0d 	sth	r9,-24(fp)
 1002550:	e23ffb0d 	sth	r8,-20(fp)
 1002554:	e17ffc05 	stb	r5,-16(fp)
 1002558:	e13ffd05 	stb	r4,-12(fp)
 100255c:	e0fffe05 	stb	r3,-8(fp)
 1002560:	e0bfff0d 	sth	r2,-4(fp)
	u8 i, j;

	lcdDrawVerLine(xs, ys, ys + row * width, color);
 1002564:	e13ffa0b 	ldhu	r4,-24(fp)
 1002568:	e17ffb0b 	ldhu	r5,-20(fp)
 100256c:	e0fffc03 	ldbu	r3,-16(fp)
 1002570:	e0bffe03 	ldbu	r2,-8(fp)
 1002574:	1885383a 	mul	r2,r3,r2
 1002578:	1007883a 	mov	r3,r2
 100257c:	e0bffb0b 	ldhu	r2,-20(fp)
 1002580:	1885883a 	add	r2,r3,r2
 1002584:	10bfffcc 	andi	r2,r2,65535
 1002588:	e0ffff0b 	ldhu	r3,-4(fp)
 100258c:	180f883a 	mov	r7,r3
 1002590:	100d883a 	mov	r6,r2
 1002594:	1001b080 	call	1001b08 <lcdDrawVerLine>
	lcdDrawVerLine(xs + col * width, ys, ys + row * width, color);
 1002598:	e0fffd03 	ldbu	r3,-12(fp)
 100259c:	e0bffe03 	ldbu	r2,-8(fp)
 10025a0:	1885383a 	mul	r2,r3,r2
 10025a4:	1007883a 	mov	r3,r2
 10025a8:	e0bffa0b 	ldhu	r2,-24(fp)
 10025ac:	1885883a 	add	r2,r3,r2
 10025b0:	113fffcc 	andi	r4,r2,65535
 10025b4:	e17ffb0b 	ldhu	r5,-20(fp)
 10025b8:	e0fffc03 	ldbu	r3,-16(fp)
 10025bc:	e0bffe03 	ldbu	r2,-8(fp)
 10025c0:	1885383a 	mul	r2,r3,r2
 10025c4:	1007883a 	mov	r3,r2
 10025c8:	e0bffb0b 	ldhu	r2,-20(fp)
 10025cc:	1885883a 	add	r2,r3,r2
 10025d0:	10bfffcc 	andi	r2,r2,65535
 10025d4:	e0ffff0b 	ldhu	r3,-4(fp)
 10025d8:	180f883a 	mov	r7,r3
 10025dc:	100d883a 	mov	r6,r2
 10025e0:	1001b080 	call	1001b08 <lcdDrawVerLine>
	lcdDrawHorLine(ys, xs, xs + col * width, color);
 10025e4:	e13ffb0b 	ldhu	r4,-20(fp)
 10025e8:	e17ffa0b 	ldhu	r5,-24(fp)
 10025ec:	e0fffd03 	ldbu	r3,-12(fp)
 10025f0:	e0bffe03 	ldbu	r2,-8(fp)
 10025f4:	1885383a 	mul	r2,r3,r2
 10025f8:	1007883a 	mov	r3,r2
 10025fc:	e0bffa0b 	ldhu	r2,-24(fp)
 1002600:	1885883a 	add	r2,r3,r2
 1002604:	10bfffcc 	andi	r2,r2,65535
 1002608:	e0ffff0b 	ldhu	r3,-4(fp)
 100260c:	180f883a 	mov	r7,r3
 1002610:	100d883a 	mov	r6,r2
 1002614:	1001d400 	call	1001d40 <lcdDrawHorLine>
	lcdDrawHorLine(ys + row * width, xs, xs + col * width, color);
 1002618:	e0fffc03 	ldbu	r3,-16(fp)
 100261c:	e0bffe03 	ldbu	r2,-8(fp)
 1002620:	1885383a 	mul	r2,r3,r2
 1002624:	1007883a 	mov	r3,r2
 1002628:	e0bffb0b 	ldhu	r2,-20(fp)
 100262c:	1885883a 	add	r2,r3,r2
 1002630:	113fffcc 	andi	r4,r2,65535
 1002634:	e17ffa0b 	ldhu	r5,-24(fp)
 1002638:	e0fffd03 	ldbu	r3,-12(fp)
 100263c:	e0bffe03 	ldbu	r2,-8(fp)
 1002640:	1885383a 	mul	r2,r3,r2
 1002644:	1007883a 	mov	r3,r2
 1002648:	e0bffa0b 	ldhu	r2,-24(fp)
 100264c:	1885883a 	add	r2,r3,r2
 1002650:	10bfffcc 	andi	r2,r2,65535
 1002654:	e0ffff0b 	ldhu	r3,-4(fp)
 1002658:	180f883a 	mov	r7,r3
 100265c:	100d883a 	mov	r6,r2
 1002660:	1001d400 	call	1001d40 <lcdDrawHorLine>

	for (i = 1; i < 5 * (col+5) ; i++)
 1002664:	00800044 	movi	r2,1
 1002668:	e0bff805 	stb	r2,-32(fp)
 100266c:	00002506 	br	1002704 <lcdDrawGrid+0x1e0>
		lcdDrawVerLine(xs + (width / 5) * i, ys + width * (row / 2) - 1,
 1002670:	e0fffe03 	ldbu	r3,-8(fp)
 1002674:	00800144 	movi	r2,5
 1002678:	1885203a 	divu	r2,r3,r2
 100267c:	10c03fcc 	andi	r3,r2,255
 1002680:	e0bff803 	ldbu	r2,-32(fp)
 1002684:	1885383a 	mul	r2,r3,r2
 1002688:	1007883a 	mov	r3,r2
 100268c:	e0bffa0b 	ldhu	r2,-24(fp)
 1002690:	1885883a 	add	r2,r3,r2
 1002694:	113fffcc 	andi	r4,r2,65535
 1002698:	e0fffe03 	ldbu	r3,-8(fp)
 100269c:	e0bffc03 	ldbu	r2,-16(fp)
 10026a0:	1004d07a 	srli	r2,r2,1
 10026a4:	10803fcc 	andi	r2,r2,255
 10026a8:	1885383a 	mul	r2,r3,r2
 10026ac:	1007883a 	mov	r3,r2
 10026b0:	e0bffb0b 	ldhu	r2,-20(fp)
 10026b4:	1885883a 	add	r2,r3,r2
 10026b8:	10bfffc4 	addi	r2,r2,-1
 10026bc:	117fffcc 	andi	r5,r2,65535
 10026c0:	e0fffe03 	ldbu	r3,-8(fp)
 10026c4:	e0bffc03 	ldbu	r2,-16(fp)
 10026c8:	1004d07a 	srli	r2,r2,1
 10026cc:	10803fcc 	andi	r2,r2,255
 10026d0:	1885383a 	mul	r2,r3,r2
 10026d4:	1007883a 	mov	r3,r2
 10026d8:	e0bffb0b 	ldhu	r2,-20(fp)
 10026dc:	1885883a 	add	r2,r3,r2
 10026e0:	10800044 	addi	r2,r2,1
 10026e4:	10bfffcc 	andi	r2,r2,65535
 10026e8:	e0ffff0b 	ldhu	r3,-4(fp)
 10026ec:	180f883a 	mov	r7,r3
 10026f0:	100d883a 	mov	r6,r2
 10026f4:	1001b080 	call	1001b08 <lcdDrawVerLine>
	lcdDrawVerLine(xs, ys, ys + row * width, color);
	lcdDrawVerLine(xs + col * width, ys, ys + row * width, color);
	lcdDrawHorLine(ys, xs, xs + col * width, color);
	lcdDrawHorLine(ys + row * width, xs, xs + col * width, color);

	for (i = 1; i < 5 * (col+5) ; i++)
 10026f8:	e0bff803 	ldbu	r2,-32(fp)
 10026fc:	10800044 	addi	r2,r2,1
 1002700:	e0bff805 	stb	r2,-32(fp)
 1002704:	e0fff803 	ldbu	r3,-32(fp)
 1002708:	e0bffd03 	ldbu	r2,-12(fp)
 100270c:	10800144 	addi	r2,r2,5
 1002710:	10800164 	muli	r2,r2,5
 1002714:	18bfd616 	blt	r3,r2,1002670 <__alt_data_end+0xff802670>
		lcdDrawVerLine(xs + (width / 5) * i, ys + width * (row / 2) - 1,
				ys + width * (row / 2) + 1, color);
	for (i = 1; i < 5 * (row+2); i++)
 1002718:	00800044 	movi	r2,1
 100271c:	e0bff805 	stb	r2,-32(fp)
 1002720:	00002506 	br	10027b8 <lcdDrawGrid+0x294>
		lcdDrawHorLine(ys + (width / 5) * i, xs + width * (col / 2) - 1,
 1002724:	e0fffe03 	ldbu	r3,-8(fp)
 1002728:	00800144 	movi	r2,5
 100272c:	1885203a 	divu	r2,r3,r2
 1002730:	10c03fcc 	andi	r3,r2,255
 1002734:	e0bff803 	ldbu	r2,-32(fp)
 1002738:	1885383a 	mul	r2,r3,r2
 100273c:	1007883a 	mov	r3,r2
 1002740:	e0bffb0b 	ldhu	r2,-20(fp)
 1002744:	1885883a 	add	r2,r3,r2
 1002748:	113fffcc 	andi	r4,r2,65535
 100274c:	e0fffe03 	ldbu	r3,-8(fp)
 1002750:	e0bffd03 	ldbu	r2,-12(fp)
 1002754:	1004d07a 	srli	r2,r2,1
 1002758:	10803fcc 	andi	r2,r2,255
 100275c:	1885383a 	mul	r2,r3,r2
 1002760:	1007883a 	mov	r3,r2
 1002764:	e0bffa0b 	ldhu	r2,-24(fp)
 1002768:	1885883a 	add	r2,r3,r2
 100276c:	10bfffc4 	addi	r2,r2,-1
 1002770:	117fffcc 	andi	r5,r2,65535
 1002774:	e0fffe03 	ldbu	r3,-8(fp)
 1002778:	e0bffd03 	ldbu	r2,-12(fp)
 100277c:	1004d07a 	srli	r2,r2,1
 1002780:	10803fcc 	andi	r2,r2,255
 1002784:	1885383a 	mul	r2,r3,r2
 1002788:	1007883a 	mov	r3,r2
 100278c:	e0bffa0b 	ldhu	r2,-24(fp)
 1002790:	1885883a 	add	r2,r3,r2
 1002794:	10800044 	addi	r2,r2,1
 1002798:	10bfffcc 	andi	r2,r2,65535
 100279c:	e0ffff0b 	ldhu	r3,-4(fp)
 10027a0:	180f883a 	mov	r7,r3
 10027a4:	100d883a 	mov	r6,r2
 10027a8:	1001d400 	call	1001d40 <lcdDrawHorLine>
	lcdDrawHorLine(ys + row * width, xs, xs + col * width, color);

	for (i = 1; i < 5 * (col+5) ; i++)
		lcdDrawVerLine(xs + (width / 5) * i, ys + width * (row / 2) - 1,
				ys + width * (row / 2) + 1, color);
	for (i = 1; i < 5 * (row+2); i++)
 10027ac:	e0bff803 	ldbu	r2,-32(fp)
 10027b0:	10800044 	addi	r2,r2,1
 10027b4:	e0bff805 	stb	r2,-32(fp)
 10027b8:	e0fff803 	ldbu	r3,-32(fp)
 10027bc:	e0bffc03 	ldbu	r2,-16(fp)
 10027c0:	10800084 	addi	r2,r2,2
 10027c4:	10800164 	muli	r2,r2,5
 10027c8:	18bfd616 	blt	r3,r2,1002724 <__alt_data_end+0xff802724>
		lcdDrawHorLine(ys + (width / 5) * i, xs + width * (col / 2) - 1,
				xs + width * (col / 2) + 1, color);

	for (j = 1; j < col; j++) {
 10027cc:	00800044 	movi	r2,1
 10027d0:	e0bff845 	stb	r2,-31(fp)
 10027d4:	00002406 	br	1002868 <lcdDrawGrid+0x344>
		u16 x = xs + j * width;
 10027d8:	e0fff843 	ldbu	r3,-31(fp)
 10027dc:	e0bffe03 	ldbu	r2,-8(fp)
 10027e0:	1885383a 	mul	r2,r3,r2
 10027e4:	1007883a 	mov	r3,r2
 10027e8:	e0bffa0b 	ldhu	r2,-24(fp)
 10027ec:	1885883a 	add	r2,r3,r2
 10027f0:	e0bff88d 	sth	r2,-30(fp)
		for (i = 1; i < 5 * (row+2); i++)
 10027f4:	00800044 	movi	r2,1
 10027f8:	e0bff805 	stb	r2,-32(fp)
 10027fc:	00001206 	br	1002848 <lcdDrawGrid+0x324>
			lcdDrawPoint(x, ys + (width / 5) * i, color);
 1002800:	e13ff88b 	ldhu	r4,-30(fp)
 1002804:	e0fffe03 	ldbu	r3,-8(fp)
 1002808:	00800144 	movi	r2,5
 100280c:	1885203a 	divu	r2,r3,r2
 1002810:	10c03fcc 	andi	r3,r2,255
 1002814:	e0bff803 	ldbu	r2,-32(fp)
 1002818:	1885383a 	mul	r2,r3,r2
 100281c:	1007883a 	mov	r3,r2
 1002820:	e0bffb0b 	ldhu	r2,-20(fp)
 1002824:	1885883a 	add	r2,r3,r2
 1002828:	10bfffcc 	andi	r2,r2,65535
 100282c:	e0ffff0b 	ldhu	r3,-4(fp)
 1002830:	180d883a 	mov	r6,r3
 1002834:	100b883a 	mov	r5,r2
 1002838:	10018ac0 	call	10018ac <lcdDrawPoint>
		lcdDrawHorLine(ys + (width / 5) * i, xs + width * (col / 2) - 1,
				xs + width * (col / 2) + 1, color);

	for (j = 1; j < col; j++) {
		u16 x = xs + j * width;
		for (i = 1; i < 5 * (row+2); i++)
 100283c:	e0bff803 	ldbu	r2,-32(fp)
 1002840:	10800044 	addi	r2,r2,1
 1002844:	e0bff805 	stb	r2,-32(fp)
 1002848:	e0fff803 	ldbu	r3,-32(fp)
 100284c:	e0bffc03 	ldbu	r2,-16(fp)
 1002850:	10800084 	addi	r2,r2,2
 1002854:	10800164 	muli	r2,r2,5
 1002858:	18bfe916 	blt	r3,r2,1002800 <__alt_data_end+0xff802800>
				ys + width * (row / 2) + 1, color);
	for (i = 1; i < 5 * (row+2); i++)
		lcdDrawHorLine(ys + (width / 5) * i, xs + width * (col / 2) - 1,
				xs + width * (col / 2) + 1, color);

	for (j = 1; j < col; j++) {
 100285c:	e0bff843 	ldbu	r2,-31(fp)
 1002860:	10800044 	addi	r2,r2,1
 1002864:	e0bff845 	stb	r2,-31(fp)
 1002868:	e0fff843 	ldbu	r3,-31(fp)
 100286c:	e0bffd03 	ldbu	r2,-12(fp)
 1002870:	18bfd936 	bltu	r3,r2,10027d8 <__alt_data_end+0xff8027d8>
		u16 x = xs + j * width;
		for (i = 1; i < 5 * (row+2); i++)
			lcdDrawPoint(x, ys + (width / 5) * i, color);
	}
	for (j = 1; j < row; j++) {
 1002874:	00800044 	movi	r2,1
 1002878:	e0bff845 	stb	r2,-31(fp)
 100287c:	00002506 	br	1002914 <lcdDrawGrid+0x3f0>
		u16 y = ys + j * width;
 1002880:	e0fff843 	ldbu	r3,-31(fp)
 1002884:	e0bffe03 	ldbu	r2,-8(fp)
 1002888:	1885383a 	mul	r2,r3,r2
 100288c:	1007883a 	mov	r3,r2
 1002890:	e0bffb0b 	ldhu	r2,-20(fp)
 1002894:	1885883a 	add	r2,r3,r2
 1002898:	e0bff90d 	sth	r2,-28(fp)
		for (i = 1; i < 5 * (col+5); i++)
 100289c:	00800044 	movi	r2,1
 10028a0:	e0bff805 	stb	r2,-32(fp)
 10028a4:	00001306 	br	10028f4 <lcdDrawGrid+0x3d0>
			lcdDrawPoint(xs + (width / 5) * i, y, color);
 10028a8:	e0fffe03 	ldbu	r3,-8(fp)
 10028ac:	00800144 	movi	r2,5
 10028b0:	1885203a 	divu	r2,r3,r2
 10028b4:	10c03fcc 	andi	r3,r2,255
 10028b8:	e0bff803 	ldbu	r2,-32(fp)
 10028bc:	1885383a 	mul	r2,r3,r2
 10028c0:	1007883a 	mov	r3,r2
 10028c4:	e0bffa0b 	ldhu	r2,-24(fp)
 10028c8:	1885883a 	add	r2,r3,r2
 10028cc:	10bfffcc 	andi	r2,r2,65535
 10028d0:	e0fff90b 	ldhu	r3,-28(fp)
 10028d4:	e13fff0b 	ldhu	r4,-4(fp)
 10028d8:	200d883a 	mov	r6,r4
 10028dc:	180b883a 	mov	r5,r3
 10028e0:	1009883a 	mov	r4,r2
 10028e4:	10018ac0 	call	10018ac <lcdDrawPoint>
		for (i = 1; i < 5 * (row+2); i++)
			lcdDrawPoint(x, ys + (width / 5) * i, color);
	}
	for (j = 1; j < row; j++) {
		u16 y = ys + j * width;
		for (i = 1; i < 5 * (col+5); i++)
 10028e8:	e0bff803 	ldbu	r2,-32(fp)
 10028ec:	10800044 	addi	r2,r2,1
 10028f0:	e0bff805 	stb	r2,-32(fp)
 10028f4:	e0fff803 	ldbu	r3,-32(fp)
 10028f8:	e0bffd03 	ldbu	r2,-12(fp)
 10028fc:	10800144 	addi	r2,r2,5
 1002900:	10800164 	muli	r2,r2,5
 1002904:	18bfe816 	blt	r3,r2,10028a8 <__alt_data_end+0xff8028a8>
	for (j = 1; j < col; j++) {
		u16 x = xs + j * width;
		for (i = 1; i < 5 * (row+2); i++)
			lcdDrawPoint(x, ys + (width / 5) * i, color);
	}
	for (j = 1; j < row; j++) {
 1002908:	e0bff843 	ldbu	r2,-31(fp)
 100290c:	10800044 	addi	r2,r2,1
 1002910:	e0bff845 	stb	r2,-31(fp)
 1002914:	e0fff843 	ldbu	r3,-31(fp)
 1002918:	e0bffc03 	ldbu	r2,-16(fp)
 100291c:	18bfd836 	bltu	r3,r2,1002880 <__alt_data_end+0xff802880>
		u16 y = ys + j * width;
		for (i = 1; i < 5 * col; i++)
			lcdDrawPoint(xs + (width / 5) * i, y, color);
	}
	*/
}
 1002920:	0001883a 	nop
 1002924:	e037883a 	mov	sp,fp
 1002928:	dfc00117 	ldw	ra,4(sp)
 100292c:	df000017 	ldw	fp,0(sp)
 1002930:	dec00204 	addi	sp,sp,8
 1002934:	f800283a 	ret

01002938 <lcdDispStringSmall>:

void lcdDispStringSmall(u16 xs, u16 ys, u16 fore, u16 back, const char*str) {
 1002938:	defff604 	addi	sp,sp,-40
 100293c:	dfc00915 	stw	ra,36(sp)
 1002940:	df000815 	stw	fp,32(sp)
 1002944:	df000804 	addi	fp,sp,32
 1002948:	2011883a 	mov	r8,r4
 100294c:	2809883a 	mov	r4,r5
 1002950:	3007883a 	mov	r3,r6
 1002954:	3805883a 	mov	r2,r7
 1002958:	e23ffc0d 	sth	r8,-16(fp)
 100295c:	e13ffd0d 	sth	r4,-12(fp)
 1002960:	e0fffe0d 	sth	r3,-8(fp)
 1002964:	e0bfff0d 	sth	r2,-4(fp)
	u8 k = 0;
 1002968:	e03ffb05 	stb	zero,-20(fp)
	while (str[k] != 0) {
 100296c:	00002006 	br	10029f0 <lcdDispStringSmall+0xb8>
		lcdDrawPic(xs + k * 8, ys, 16, 8, fore, back, ASCII8_16[str[k] - ' ']);
 1002970:	e0bffb03 	ldbu	r2,-20(fp)
 1002974:	100490fa 	slli	r2,r2,3
 1002978:	1007883a 	mov	r3,r2
 100297c:	e0bffc0b 	ldhu	r2,-16(fp)
 1002980:	1885883a 	add	r2,r3,r2
 1002984:	123fffcc 	andi	r8,r2,65535
 1002988:	e27ffd0b 	ldhu	r9,-12(fp)
 100298c:	e0fffe0b 	ldhu	r3,-8(fp)
 1002990:	e13fff0b 	ldhu	r4,-4(fp)
 1002994:	e0bffb03 	ldbu	r2,-20(fp)
 1002998:	e1400217 	ldw	r5,8(fp)
 100299c:	2885883a 	add	r2,r5,r2
 10029a0:	10800003 	ldbu	r2,0(r2)
 10029a4:	10803fcc 	andi	r2,r2,255
 10029a8:	1080201c 	xori	r2,r2,128
 10029ac:	10bfe004 	addi	r2,r2,-128
 10029b0:	10bff804 	addi	r2,r2,-32
 10029b4:	100a913a 	slli	r5,r2,4
 10029b8:	008040b4 	movhi	r2,258
 10029bc:	10824704 	addi	r2,r2,2332
 10029c0:	2885883a 	add	r2,r5,r2
 10029c4:	d8800215 	stw	r2,8(sp)
 10029c8:	d9000115 	stw	r4,4(sp)
 10029cc:	d8c00015 	stw	r3,0(sp)
 10029d0:	01c00204 	movi	r7,8
 10029d4:	01800404 	movi	r6,16
 10029d8:	480b883a 	mov	r5,r9
 10029dc:	4009883a 	mov	r4,r8
 10029e0:	10021c80 	call	10021c8 <lcdDrawPic>
		k++;
 10029e4:	e0bffb03 	ldbu	r2,-20(fp)
 10029e8:	10800044 	addi	r2,r2,1
 10029ec:	e0bffb05 	stb	r2,-20(fp)
	*/
}

void lcdDispStringSmall(u16 xs, u16 ys, u16 fore, u16 back, const char*str) {
	u8 k = 0;
	while (str[k] != 0) {
 10029f0:	e0bffb03 	ldbu	r2,-20(fp)
 10029f4:	e0c00217 	ldw	r3,8(fp)
 10029f8:	1885883a 	add	r2,r3,r2
 10029fc:	10800003 	ldbu	r2,0(r2)
 1002a00:	10803fcc 	andi	r2,r2,255
 1002a04:	1080201c 	xori	r2,r2,128
 1002a08:	10bfe004 	addi	r2,r2,-128
 1002a0c:	103fd81e 	bne	r2,zero,1002970 <__alt_data_end+0xff802970>
		lcdDrawPic(xs + k * 8, ys, 16, 8, fore, back, ASCII8_16[str[k] - ' ']);
		k++;
	}
}
 1002a10:	0001883a 	nop
 1002a14:	e037883a 	mov	sp,fp
 1002a18:	dfc00117 	ldw	ra,4(sp)
 1002a1c:	df000017 	ldw	fp,0(sp)
 1002a20:	dec00204 	addi	sp,sp,8
 1002a24:	f800283a 	ret

01002a28 <lcdDispStringBig>:

void lcdDispStringBig(u16 xs, u16 ys, u16 fore, u16 back, const char*str) {
 1002a28:	defff604 	addi	sp,sp,-40
 1002a2c:	dfc00915 	stw	ra,36(sp)
 1002a30:	df000815 	stw	fp,32(sp)
 1002a34:	df000804 	addi	fp,sp,32
 1002a38:	2011883a 	mov	r8,r4
 1002a3c:	2809883a 	mov	r4,r5
 1002a40:	3007883a 	mov	r3,r6
 1002a44:	3805883a 	mov	r2,r7
 1002a48:	e23ffc0d 	sth	r8,-16(fp)
 1002a4c:	e13ffd0d 	sth	r4,-12(fp)
 1002a50:	e0fffe0d 	sth	r3,-8(fp)
 1002a54:	e0bfff0d 	sth	r2,-4(fp)
	u8 k = 0;
 1002a58:	e03ffb05 	stb	zero,-20(fp)
	while (str[k] != 0) {
 1002a5c:	00002006 	br	1002ae0 <lcdDispStringBig+0xb8>
		lcdDrawPic(xs + k * 12, ys, 24, 12, fore, back,
 1002a60:	e0bffb03 	ldbu	r2,-20(fp)
 1002a64:	10800324 	muli	r2,r2,12
 1002a68:	1007883a 	mov	r3,r2
 1002a6c:	e0bffc0b 	ldhu	r2,-16(fp)
 1002a70:	1885883a 	add	r2,r3,r2
 1002a74:	123fffcc 	andi	r8,r2,65535
 1002a78:	e27ffd0b 	ldhu	r9,-12(fp)
 1002a7c:	e0fffe0b 	ldhu	r3,-8(fp)
 1002a80:	e13fff0b 	ldhu	r4,-4(fp)
				ASCII12_24[str[k] - ' ']);
 1002a84:	e0bffb03 	ldbu	r2,-20(fp)
 1002a88:	e1400217 	ldw	r5,8(fp)
 1002a8c:	2885883a 	add	r2,r5,r2
 1002a90:	10800003 	ldbu	r2,0(r2)
 1002a94:	10803fcc 	andi	r2,r2,255
 1002a98:	1080201c 	xori	r2,r2,128
 1002a9c:	10bfe004 	addi	r2,r2,-128
 1002aa0:	10bff804 	addi	r2,r2,-32
 1002aa4:	11400c24 	muli	r5,r2,48
 1002aa8:	008040b4 	movhi	r2,258
 1002aac:	1083c704 	addi	r2,r2,3868
 1002ab0:	2885883a 	add	r2,r5,r2
}

void lcdDispStringBig(u16 xs, u16 ys, u16 fore, u16 back, const char*str) {
	u8 k = 0;
	while (str[k] != 0) {
		lcdDrawPic(xs + k * 12, ys, 24, 12, fore, back,
 1002ab4:	d8800215 	stw	r2,8(sp)
 1002ab8:	d9000115 	stw	r4,4(sp)
 1002abc:	d8c00015 	stw	r3,0(sp)
 1002ac0:	01c00304 	movi	r7,12
 1002ac4:	01800604 	movi	r6,24
 1002ac8:	480b883a 	mov	r5,r9
 1002acc:	4009883a 	mov	r4,r8
 1002ad0:	10021c80 	call	10021c8 <lcdDrawPic>
				ASCII12_24[str[k] - ' ']);
		k++;
 1002ad4:	e0bffb03 	ldbu	r2,-20(fp)
 1002ad8:	10800044 	addi	r2,r2,1
 1002adc:	e0bffb05 	stb	r2,-20(fp)
	}
}

void lcdDispStringBig(u16 xs, u16 ys, u16 fore, u16 back, const char*str) {
	u8 k = 0;
	while (str[k] != 0) {
 1002ae0:	e0bffb03 	ldbu	r2,-20(fp)
 1002ae4:	e0c00217 	ldw	r3,8(fp)
 1002ae8:	1885883a 	add	r2,r3,r2
 1002aec:	10800003 	ldbu	r2,0(r2)
 1002af0:	10803fcc 	andi	r2,r2,255
 1002af4:	1080201c 	xori	r2,r2,128
 1002af8:	10bfe004 	addi	r2,r2,-128
 1002afc:	103fd81e 	bne	r2,zero,1002a60 <__alt_data_end+0xff802a60>
		lcdDrawPic(xs + k * 12, ys, 24, 12, fore, back,
				ASCII12_24[str[k] - ' ']);
		k++;
	}
}
 1002b00:	0001883a 	nop
 1002b04:	e037883a 	mov	sp,fp
 1002b08:	dfc00117 	ldw	ra,4(sp)
 1002b0c:	df000017 	ldw	fp,0(sp)
 1002b10:	dec00204 	addi	sp,sp,8
 1002b14:	f800283a 	ret

01002b18 <lcdDispDecSmall>:

void lcdDispDecSmall(u16 xs, u16 ys, u16 fore, u16 back, int dec) {
 1002b18:	defff504 	addi	sp,sp,-44
 1002b1c:	dfc00a15 	stw	ra,40(sp)
 1002b20:	df000915 	stw	fp,36(sp)
 1002b24:	df000904 	addi	fp,sp,36
 1002b28:	2011883a 	mov	r8,r4
 1002b2c:	2809883a 	mov	r4,r5
 1002b30:	3007883a 	mov	r3,r6
 1002b34:	3805883a 	mov	r2,r7
 1002b38:	e23ffc0d 	sth	r8,-16(fp)
 1002b3c:	e13ffd0d 	sth	r4,-12(fp)
 1002b40:	e0fffe0d 	sth	r3,-8(fp)
 1002b44:	e0bfff0d 	sth	r2,-4(fp)
	char str[16] = { 0 };
 1002b48:	e03ff815 	stw	zero,-32(fp)
 1002b4c:	e03ff915 	stw	zero,-28(fp)
 1002b50:	e03ffa15 	stw	zero,-24(fp)
 1002b54:	e03ffb15 	stw	zero,-20(fp)
	sprintf(str, "%d", dec);
 1002b58:	e1800217 	ldw	r6,8(fp)
 1002b5c:	014040b4 	movhi	r5,258
 1002b60:	29484704 	addi	r5,r5,8476
 1002b64:	e13ff804 	addi	r4,fp,-32
 1002b68:	1005b440 	call	1005b44 <sprintf>
	lcdDispStringSmall(xs, ys, fore, back, str);
 1002b6c:	e0bffc0b 	ldhu	r2,-16(fp)
 1002b70:	e0fffd0b 	ldhu	r3,-12(fp)
 1002b74:	e13ffe0b 	ldhu	r4,-8(fp)
 1002b78:	e17fff0b 	ldhu	r5,-4(fp)
 1002b7c:	e1bff804 	addi	r6,fp,-32
 1002b80:	d9800015 	stw	r6,0(sp)
 1002b84:	280f883a 	mov	r7,r5
 1002b88:	200d883a 	mov	r6,r4
 1002b8c:	180b883a 	mov	r5,r3
 1002b90:	1009883a 	mov	r4,r2
 1002b94:	10029380 	call	1002938 <lcdDispStringSmall>
}
 1002b98:	0001883a 	nop
 1002b9c:	e037883a 	mov	sp,fp
 1002ba0:	dfc00117 	ldw	ra,4(sp)
 1002ba4:	df000017 	ldw	fp,0(sp)
 1002ba8:	dec00204 	addi	sp,sp,8
 1002bac:	f800283a 	ret

01002bb0 <lcdDispDecBig>:

void lcdDispDecBig(u16 xs, u16 ys, u16 fore, u16 back, int dec) {
 1002bb0:	defff504 	addi	sp,sp,-44
 1002bb4:	dfc00a15 	stw	ra,40(sp)
 1002bb8:	df000915 	stw	fp,36(sp)
 1002bbc:	df000904 	addi	fp,sp,36
 1002bc0:	2011883a 	mov	r8,r4
 1002bc4:	2809883a 	mov	r4,r5
 1002bc8:	3007883a 	mov	r3,r6
 1002bcc:	3805883a 	mov	r2,r7
 1002bd0:	e23ffc0d 	sth	r8,-16(fp)
 1002bd4:	e13ffd0d 	sth	r4,-12(fp)
 1002bd8:	e0fffe0d 	sth	r3,-8(fp)
 1002bdc:	e0bfff0d 	sth	r2,-4(fp)
	char str[16] = { 0 };
 1002be0:	e03ff815 	stw	zero,-32(fp)
 1002be4:	e03ff915 	stw	zero,-28(fp)
 1002be8:	e03ffa15 	stw	zero,-24(fp)
 1002bec:	e03ffb15 	stw	zero,-20(fp)
	sprintf(str, "%d", dec);
 1002bf0:	e1800217 	ldw	r6,8(fp)
 1002bf4:	014040b4 	movhi	r5,258
 1002bf8:	29484704 	addi	r5,r5,8476
 1002bfc:	e13ff804 	addi	r4,fp,-32
 1002c00:	1005b440 	call	1005b44 <sprintf>
	lcdDispStringBig(xs, ys, fore, back, str);
 1002c04:	e0bffc0b 	ldhu	r2,-16(fp)
 1002c08:	e0fffd0b 	ldhu	r3,-12(fp)
 1002c0c:	e13ffe0b 	ldhu	r4,-8(fp)
 1002c10:	e17fff0b 	ldhu	r5,-4(fp)
 1002c14:	e1bff804 	addi	r6,fp,-32
 1002c18:	d9800015 	stw	r6,0(sp)
 1002c1c:	280f883a 	mov	r7,r5
 1002c20:	200d883a 	mov	r6,r4
 1002c24:	180b883a 	mov	r5,r3
 1002c28:	1009883a 	mov	r4,r2
 1002c2c:	1002a280 	call	1002a28 <lcdDispStringBig>
}
 1002c30:	0001883a 	nop
 1002c34:	e037883a 	mov	sp,fp
 1002c38:	dfc00117 	ldw	ra,4(sp)
 1002c3c:	df000017 	ldw	fp,0(sp)
 1002c40:	dec00204 	addi	sp,sp,8
 1002c44:	f800283a 	ret

01002c48 <lcdDispFloatSmall>:

void lcdDispFloatSmall(u16 xs, u16 ys, u16 fore, u16 back, float flo) {
 1002c48:	defff504 	addi	sp,sp,-44
 1002c4c:	dfc00a15 	stw	ra,40(sp)
 1002c50:	df000915 	stw	fp,36(sp)
 1002c54:	df000904 	addi	fp,sp,36
 1002c58:	2011883a 	mov	r8,r4
 1002c5c:	2809883a 	mov	r4,r5
 1002c60:	3007883a 	mov	r3,r6
 1002c64:	3805883a 	mov	r2,r7
 1002c68:	e23ffc0d 	sth	r8,-16(fp)
 1002c6c:	e13ffd0d 	sth	r4,-12(fp)
 1002c70:	e0fffe0d 	sth	r3,-8(fp)
 1002c74:	e0bfff0d 	sth	r2,-4(fp)
	char str[16] = { 0 };
 1002c78:	e03ff815 	stw	zero,-32(fp)
 1002c7c:	e03ff915 	stw	zero,-28(fp)
 1002c80:	e03ffa15 	stw	zero,-24(fp)
 1002c84:	e03ffb15 	stw	zero,-20(fp)
	sprintf(str, "%f", flo);
 1002c88:	e1000217 	ldw	r4,8(fp)
 1002c8c:	10058380 	call	1005838 <__extendsfdf2>
 1002c90:	1009883a 	mov	r4,r2
 1002c94:	180b883a 	mov	r5,r3
 1002c98:	200d883a 	mov	r6,r4
 1002c9c:	280f883a 	mov	r7,r5
 1002ca0:	014040b4 	movhi	r5,258
 1002ca4:	29484804 	addi	r5,r5,8480
 1002ca8:	e13ff804 	addi	r4,fp,-32
 1002cac:	1005b440 	call	1005b44 <sprintf>
	lcdDispStringSmall(xs, ys, fore, back, str);
 1002cb0:	e0bffc0b 	ldhu	r2,-16(fp)
 1002cb4:	e0fffd0b 	ldhu	r3,-12(fp)
 1002cb8:	e13ffe0b 	ldhu	r4,-8(fp)
 1002cbc:	e17fff0b 	ldhu	r5,-4(fp)
 1002cc0:	e1bff804 	addi	r6,fp,-32
 1002cc4:	d9800015 	stw	r6,0(sp)
 1002cc8:	280f883a 	mov	r7,r5
 1002ccc:	200d883a 	mov	r6,r4
 1002cd0:	180b883a 	mov	r5,r3
 1002cd4:	1009883a 	mov	r4,r2
 1002cd8:	10029380 	call	1002938 <lcdDispStringSmall>
}
 1002cdc:	0001883a 	nop
 1002ce0:	e037883a 	mov	sp,fp
 1002ce4:	dfc00117 	ldw	ra,4(sp)
 1002ce8:	df000017 	ldw	fp,0(sp)
 1002cec:	dec00204 	addi	sp,sp,8
 1002cf0:	f800283a 	ret

01002cf4 <lcdDispFloatBig>:

void lcdDispFloatBig(u16 xs, u16 ys, u16 fore, u16 back, float flo,int weishu) {
 1002cf4:	defff504 	addi	sp,sp,-44
 1002cf8:	dfc00a15 	stw	ra,40(sp)
 1002cfc:	df000915 	stw	fp,36(sp)
 1002d00:	df000904 	addi	fp,sp,36
 1002d04:	2011883a 	mov	r8,r4
 1002d08:	2809883a 	mov	r4,r5
 1002d0c:	3007883a 	mov	r3,r6
 1002d10:	3805883a 	mov	r2,r7
 1002d14:	e23ffc0d 	sth	r8,-16(fp)
 1002d18:	e13ffd0d 	sth	r4,-12(fp)
 1002d1c:	e0fffe0d 	sth	r3,-8(fp)
 1002d20:	e0bfff0d 	sth	r2,-4(fp)
	char str[16] = { 0 };
 1002d24:	e03ff815 	stw	zero,-32(fp)
 1002d28:	e03ff915 	stw	zero,-28(fp)
 1002d2c:	e03ffa15 	stw	zero,-24(fp)
 1002d30:	e03ffb15 	stw	zero,-20(fp)
	switch(weishu)
 1002d34:	e0800317 	ldw	r2,12(fp)
 1002d38:	108001e8 	cmpgeui	r2,r2,7
 1002d3c:	1000501e 	bne	r2,zero,1002e80 <lcdDispFloatBig+0x18c>
 1002d40:	e0800317 	ldw	r2,12(fp)
 1002d44:	100690ba 	slli	r3,r2,2
 1002d48:	00804034 	movhi	r2,256
 1002d4c:	108b5704 	addi	r2,r2,11612
 1002d50:	1885883a 	add	r2,r3,r2
 1002d54:	10800017 	ldw	r2,0(r2)
 1002d58:	1000683a 	jmp	r2
 1002d5c:	01002e80 	call	1002e8 <__reset+0x1002e8>
 1002d60:	01002d78 	rdprs	r4,zero,181
 1002d64:	01002da4 	muli	r4,zero,182
 1002d68:	01002dd0 	cmplti	r4,zero,183
 1002d6c:	01002dfc 	xorhi	r4,zero,183
 1002d70:	01002e28 	cmpgeui	r4,zero,184
 1002d74:	01002e54 	movui	r4,185
	{
       case 1:sprintf(str, "%.1f", flo);break;
 1002d78:	e1000217 	ldw	r4,8(fp)
 1002d7c:	10058380 	call	1005838 <__extendsfdf2>
 1002d80:	1009883a 	mov	r4,r2
 1002d84:	180b883a 	mov	r5,r3
 1002d88:	200d883a 	mov	r6,r4
 1002d8c:	280f883a 	mov	r7,r5
 1002d90:	014040b4 	movhi	r5,258
 1002d94:	29484904 	addi	r5,r5,8484
 1002d98:	e13ff804 	addi	r4,fp,-32
 1002d9c:	1005b440 	call	1005b44 <sprintf>
 1002da0:	00004106 	br	1002ea8 <lcdDispFloatBig+0x1b4>
       case 2:sprintf(str, "%.2f", flo);break;
 1002da4:	e1000217 	ldw	r4,8(fp)
 1002da8:	10058380 	call	1005838 <__extendsfdf2>
 1002dac:	1009883a 	mov	r4,r2
 1002db0:	180b883a 	mov	r5,r3
 1002db4:	200d883a 	mov	r6,r4
 1002db8:	280f883a 	mov	r7,r5
 1002dbc:	014040b4 	movhi	r5,258
 1002dc0:	29484b04 	addi	r5,r5,8492
 1002dc4:	e13ff804 	addi	r4,fp,-32
 1002dc8:	1005b440 	call	1005b44 <sprintf>
 1002dcc:	00003606 	br	1002ea8 <lcdDispFloatBig+0x1b4>
       case 3:sprintf(str, "%.3f", flo);break;
 1002dd0:	e1000217 	ldw	r4,8(fp)
 1002dd4:	10058380 	call	1005838 <__extendsfdf2>
 1002dd8:	1009883a 	mov	r4,r2
 1002ddc:	180b883a 	mov	r5,r3
 1002de0:	200d883a 	mov	r6,r4
 1002de4:	280f883a 	mov	r7,r5
 1002de8:	014040b4 	movhi	r5,258
 1002dec:	29484d04 	addi	r5,r5,8500
 1002df0:	e13ff804 	addi	r4,fp,-32
 1002df4:	1005b440 	call	1005b44 <sprintf>
 1002df8:	00002b06 	br	1002ea8 <lcdDispFloatBig+0x1b4>
       case 4:sprintf(str, "%.4f", flo);break;
 1002dfc:	e1000217 	ldw	r4,8(fp)
 1002e00:	10058380 	call	1005838 <__extendsfdf2>
 1002e04:	1009883a 	mov	r4,r2
 1002e08:	180b883a 	mov	r5,r3
 1002e0c:	200d883a 	mov	r6,r4
 1002e10:	280f883a 	mov	r7,r5
 1002e14:	014040b4 	movhi	r5,258
 1002e18:	29484f04 	addi	r5,r5,8508
 1002e1c:	e13ff804 	addi	r4,fp,-32
 1002e20:	1005b440 	call	1005b44 <sprintf>
 1002e24:	00002006 	br	1002ea8 <lcdDispFloatBig+0x1b4>
       case 5:sprintf(str, "%.5f", flo);break;
 1002e28:	e1000217 	ldw	r4,8(fp)
 1002e2c:	10058380 	call	1005838 <__extendsfdf2>
 1002e30:	1009883a 	mov	r4,r2
 1002e34:	180b883a 	mov	r5,r3
 1002e38:	200d883a 	mov	r6,r4
 1002e3c:	280f883a 	mov	r7,r5
 1002e40:	014040b4 	movhi	r5,258
 1002e44:	29485104 	addi	r5,r5,8516
 1002e48:	e13ff804 	addi	r4,fp,-32
 1002e4c:	1005b440 	call	1005b44 <sprintf>
 1002e50:	00001506 	br	1002ea8 <lcdDispFloatBig+0x1b4>
       case 6:sprintf(str, "%.6f", flo);break;
 1002e54:	e1000217 	ldw	r4,8(fp)
 1002e58:	10058380 	call	1005838 <__extendsfdf2>
 1002e5c:	1009883a 	mov	r4,r2
 1002e60:	180b883a 	mov	r5,r3
 1002e64:	200d883a 	mov	r6,r4
 1002e68:	280f883a 	mov	r7,r5
 1002e6c:	014040b4 	movhi	r5,258
 1002e70:	29485304 	addi	r5,r5,8524
 1002e74:	e13ff804 	addi	r4,fp,-32
 1002e78:	1005b440 	call	1005b44 <sprintf>
 1002e7c:	00000a06 	br	1002ea8 <lcdDispFloatBig+0x1b4>
       default: sprintf(str, "%.6f", flo);
 1002e80:	e1000217 	ldw	r4,8(fp)
 1002e84:	10058380 	call	1005838 <__extendsfdf2>
 1002e88:	1009883a 	mov	r4,r2
 1002e8c:	180b883a 	mov	r5,r3
 1002e90:	200d883a 	mov	r6,r4
 1002e94:	280f883a 	mov	r7,r5
 1002e98:	014040b4 	movhi	r5,258
 1002e9c:	29485304 	addi	r5,r5,8524
 1002ea0:	e13ff804 	addi	r4,fp,-32
 1002ea4:	1005b440 	call	1005b44 <sprintf>
	}
	lcdDispStringBig(xs, ys, fore, back, str);
 1002ea8:	e0bffc0b 	ldhu	r2,-16(fp)
 1002eac:	e0fffd0b 	ldhu	r3,-12(fp)
 1002eb0:	e13ffe0b 	ldhu	r4,-8(fp)
 1002eb4:	e17fff0b 	ldhu	r5,-4(fp)
 1002eb8:	e1bff804 	addi	r6,fp,-32
 1002ebc:	d9800015 	stw	r6,0(sp)
 1002ec0:	280f883a 	mov	r7,r5
 1002ec4:	200d883a 	mov	r6,r4
 1002ec8:	180b883a 	mov	r5,r3
 1002ecc:	1009883a 	mov	r4,r2
 1002ed0:	1002a280 	call	1002a28 <lcdDispStringBig>
}
 1002ed4:	0001883a 	nop
 1002ed8:	e037883a 	mov	sp,fp
 1002edc:	dfc00117 	ldw	ra,4(sp)
 1002ee0:	df000017 	ldw	fp,0(sp)
 1002ee4:	dec00204 	addi	sp,sp,8
 1002ee8:	f800283a 	ret

01002eec <DisplayPic>:



//
void DisplayPic(u16 x_start,u16 y_start,u16 width,u16 depth, u8 *p,u8 factor)
{
 1002eec:	defff604 	addi	sp,sp,-40
 1002ef0:	dfc00915 	stw	ra,36(sp)
 1002ef4:	df000815 	stw	fp,32(sp)
 1002ef8:	df000804 	addi	fp,sp,32
 1002efc:	2011883a 	mov	r8,r4
 1002f00:	3009883a 	mov	r4,r6
 1002f04:	3807883a 	mov	r3,r7
 1002f08:	e0800317 	ldw	r2,12(fp)
 1002f0c:	e23ffb0d 	sth	r8,-20(fp)
 1002f10:	e17ffc0d 	sth	r5,-16(fp)
 1002f14:	e13ffd0d 	sth	r4,-12(fp)
 1002f18:	e0fffe0d 	sth	r3,-8(fp)
 1002f1c:	e0bfff05 	stb	r2,-4(fp)
	u16 x,y;
	u32 i=0;
 1002f20:	e03ff915 	stw	zero,-28(fp)
	u16 color;
	for(y=0;y<depth*factor;y++)
 1002f24:	e03ff88d 	sth	zero,-30(fp)
 1002f28:	00003306 	br	1002ff8 <DisplayPic+0x10c>
	{
		for(x=0;x<width*factor;x++)
 1002f2c:	e03ff80d 	sth	zero,-32(fp)
 1002f30:	00002906 	br	1002fd8 <DisplayPic+0xec>
		{
			i=((y/factor)*width+(x/factor))*2;
 1002f34:	e0fff88b 	ldhu	r3,-30(fp)
 1002f38:	e0bfff03 	ldbu	r2,-4(fp)
 1002f3c:	1887283a 	div	r3,r3,r2
 1002f40:	e0bffd0b 	ldhu	r2,-12(fp)
 1002f44:	1887383a 	mul	r3,r3,r2
 1002f48:	e13ff80b 	ldhu	r4,-32(fp)
 1002f4c:	e0bfff03 	ldbu	r2,-4(fp)
 1002f50:	2085283a 	div	r2,r4,r2
 1002f54:	1885883a 	add	r2,r3,r2
 1002f58:	1085883a 	add	r2,r2,r2
 1002f5c:	e0bff915 	stw	r2,-28(fp)
			color=p[i]*256+p[i+1];
 1002f60:	e0c00217 	ldw	r3,8(fp)
 1002f64:	e0bff917 	ldw	r2,-28(fp)
 1002f68:	1885883a 	add	r2,r3,r2
 1002f6c:	10800003 	ldbu	r2,0(r2)
 1002f70:	10803fcc 	andi	r2,r2,255
 1002f74:	1004923a 	slli	r2,r2,8
 1002f78:	1009883a 	mov	r4,r2
 1002f7c:	e0bff917 	ldw	r2,-28(fp)
 1002f80:	10800044 	addi	r2,r2,1
 1002f84:	e0c00217 	ldw	r3,8(fp)
 1002f88:	1885883a 	add	r2,r3,r2
 1002f8c:	10800003 	ldbu	r2,0(r2)
 1002f90:	10803fcc 	andi	r2,r2,255
 1002f94:	2085883a 	add	r2,r4,r2
 1002f98:	e0bffa0d 	sth	r2,-24(fp)
			lcdDrawPoint(x+x_start, y+y_start ,color);
 1002f9c:	e0fff80b 	ldhu	r3,-32(fp)
 1002fa0:	e0bffb0b 	ldhu	r2,-20(fp)
 1002fa4:	1885883a 	add	r2,r3,r2
 1002fa8:	113fffcc 	andi	r4,r2,65535
 1002fac:	e0fff88b 	ldhu	r3,-30(fp)
 1002fb0:	e0bffc0b 	ldhu	r2,-16(fp)
 1002fb4:	1885883a 	add	r2,r3,r2
 1002fb8:	10bfffcc 	andi	r2,r2,65535
 1002fbc:	e0fffa0b 	ldhu	r3,-24(fp)
 1002fc0:	180d883a 	mov	r6,r3
 1002fc4:	100b883a 	mov	r5,r2
 1002fc8:	10018ac0 	call	10018ac <lcdDrawPoint>
	u16 x,y;
	u32 i=0;
	u16 color;
	for(y=0;y<depth*factor;y++)
	{
		for(x=0;x<width*factor;x++)
 1002fcc:	e0bff80b 	ldhu	r2,-32(fp)
 1002fd0:	10800044 	addi	r2,r2,1
 1002fd4:	e0bff80d 	sth	r2,-32(fp)
 1002fd8:	e0fff80b 	ldhu	r3,-32(fp)
 1002fdc:	e13ffd0b 	ldhu	r4,-12(fp)
 1002fe0:	e0bfff03 	ldbu	r2,-4(fp)
 1002fe4:	2085383a 	mul	r2,r4,r2
 1002fe8:	18bfd216 	blt	r3,r2,1002f34 <__alt_data_end+0xff802f34>
void DisplayPic(u16 x_start,u16 y_start,u16 width,u16 depth, u8 *p,u8 factor)
{
	u16 x,y;
	u32 i=0;
	u16 color;
	for(y=0;y<depth*factor;y++)
 1002fec:	e0bff88b 	ldhu	r2,-30(fp)
 1002ff0:	10800044 	addi	r2,r2,1
 1002ff4:	e0bff88d 	sth	r2,-30(fp)
 1002ff8:	e0fff88b 	ldhu	r3,-30(fp)
 1002ffc:	e13ffe0b 	ldhu	r4,-8(fp)
 1003000:	e0bfff03 	ldbu	r2,-4(fp)
 1003004:	2085383a 	mul	r2,r4,r2
 1003008:	18bfc816 	blt	r3,r2,1002f2c <__alt_data_end+0xff802f2c>
			i=((y/factor)*width+(x/factor))*2;
			color=p[i]*256+p[i+1];
			lcdDrawPoint(x+x_start, y+y_start ,color);
		}
	}
}
 100300c:	0001883a 	nop
 1003010:	e037883a 	mov	sp,fp
 1003014:	dfc00117 	ldw	ra,4(sp)
 1003018:	df000017 	ldw	fp,0(sp)
 100301c:	dec00204 	addi	sp,sp,8
 1003020:	f800283a 	ret

01003024 <lcdDispNumtable>:

void lcdDispNumtable(int Num_X,int Num_Y){//
 1003024:	defffa04 	addi	sp,sp,-24
 1003028:	dfc00515 	stw	ra,20(sp)
 100302c:	df000415 	stw	fp,16(sp)
 1003030:	df000404 	addi	fp,sp,16
 1003034:	e13ffe15 	stw	r4,-8(fp)
 1003038:	e17fff15 	stw	r5,-4(fp)
	lcddrawsqur(Num_X,Num_X+50,Num_Y,Num_Y+50,BLACK, "  1");
 100303c:	e0bffe17 	ldw	r2,-8(fp)
 1003040:	10ffffcc 	andi	r3,r2,65535
 1003044:	e0bffe17 	ldw	r2,-8(fp)
 1003048:	10800c84 	addi	r2,r2,50
 100304c:	113fffcc 	andi	r4,r2,65535
 1003050:	e0bfff17 	ldw	r2,-4(fp)
 1003054:	117fffcc 	andi	r5,r2,65535
 1003058:	e0bfff17 	ldw	r2,-4(fp)
 100305c:	10800c84 	addi	r2,r2,50
 1003060:	11bfffcc 	andi	r6,r2,65535
 1003064:	008040b4 	movhi	r2,258
 1003068:	10885504 	addi	r2,r2,8532
 100306c:	d8800115 	stw	r2,4(sp)
 1003070:	d8000015 	stw	zero,0(sp)
 1003074:	300f883a 	mov	r7,r6
 1003078:	280d883a 	mov	r6,r5
 100307c:	200b883a 	mov	r5,r4
 1003080:	1809883a 	mov	r4,r3
 1003084:	100352c0 	call	100352c <lcddrawsqur>
	lcddrawsqur(Num_X+50,Num_X+100,Num_Y,Num_Y+50,BLACK, "  2");
 1003088:	e0bffe17 	ldw	r2,-8(fp)
 100308c:	10800c84 	addi	r2,r2,50
 1003090:	10ffffcc 	andi	r3,r2,65535
 1003094:	e0bffe17 	ldw	r2,-8(fp)
 1003098:	10801904 	addi	r2,r2,100
 100309c:	113fffcc 	andi	r4,r2,65535
 10030a0:	e0bfff17 	ldw	r2,-4(fp)
 10030a4:	117fffcc 	andi	r5,r2,65535
 10030a8:	e0bfff17 	ldw	r2,-4(fp)
 10030ac:	10800c84 	addi	r2,r2,50
 10030b0:	11bfffcc 	andi	r6,r2,65535
 10030b4:	008040b4 	movhi	r2,258
 10030b8:	10885604 	addi	r2,r2,8536
 10030bc:	d8800115 	stw	r2,4(sp)
 10030c0:	d8000015 	stw	zero,0(sp)
 10030c4:	300f883a 	mov	r7,r6
 10030c8:	280d883a 	mov	r6,r5
 10030cc:	200b883a 	mov	r5,r4
 10030d0:	1809883a 	mov	r4,r3
 10030d4:	100352c0 	call	100352c <lcddrawsqur>
	lcddrawsqur(Num_X+100,Num_X+150,Num_Y,Num_Y+50,BLACK, "  3");
 10030d8:	e0bffe17 	ldw	r2,-8(fp)
 10030dc:	10801904 	addi	r2,r2,100
 10030e0:	10ffffcc 	andi	r3,r2,65535
 10030e4:	e0bffe17 	ldw	r2,-8(fp)
 10030e8:	10802584 	addi	r2,r2,150
 10030ec:	113fffcc 	andi	r4,r2,65535
 10030f0:	e0bfff17 	ldw	r2,-4(fp)
 10030f4:	117fffcc 	andi	r5,r2,65535
 10030f8:	e0bfff17 	ldw	r2,-4(fp)
 10030fc:	10800c84 	addi	r2,r2,50
 1003100:	11bfffcc 	andi	r6,r2,65535
 1003104:	008040b4 	movhi	r2,258
 1003108:	10885704 	addi	r2,r2,8540
 100310c:	d8800115 	stw	r2,4(sp)
 1003110:	d8000015 	stw	zero,0(sp)
 1003114:	300f883a 	mov	r7,r6
 1003118:	280d883a 	mov	r6,r5
 100311c:	200b883a 	mov	r5,r4
 1003120:	1809883a 	mov	r4,r3
 1003124:	100352c0 	call	100352c <lcddrawsqur>
	lcddrawsqur(Num_X,Num_X+50,Num_Y+50,Num_Y+100,BLACK, "  4");
 1003128:	e0bffe17 	ldw	r2,-8(fp)
 100312c:	10ffffcc 	andi	r3,r2,65535
 1003130:	e0bffe17 	ldw	r2,-8(fp)
 1003134:	10800c84 	addi	r2,r2,50
 1003138:	113fffcc 	andi	r4,r2,65535
 100313c:	e0bfff17 	ldw	r2,-4(fp)
 1003140:	10800c84 	addi	r2,r2,50
 1003144:	117fffcc 	andi	r5,r2,65535
 1003148:	e0bfff17 	ldw	r2,-4(fp)
 100314c:	10801904 	addi	r2,r2,100
 1003150:	11bfffcc 	andi	r6,r2,65535
 1003154:	008040b4 	movhi	r2,258
 1003158:	10885804 	addi	r2,r2,8544
 100315c:	d8800115 	stw	r2,4(sp)
 1003160:	d8000015 	stw	zero,0(sp)
 1003164:	300f883a 	mov	r7,r6
 1003168:	280d883a 	mov	r6,r5
 100316c:	200b883a 	mov	r5,r4
 1003170:	1809883a 	mov	r4,r3
 1003174:	100352c0 	call	100352c <lcddrawsqur>
	lcddrawsqur(Num_X+50,Num_X+100,Num_Y+50,Num_Y+100,BLACK, "  5");
 1003178:	e0bffe17 	ldw	r2,-8(fp)
 100317c:	10800c84 	addi	r2,r2,50
 1003180:	10ffffcc 	andi	r3,r2,65535
 1003184:	e0bffe17 	ldw	r2,-8(fp)
 1003188:	10801904 	addi	r2,r2,100
 100318c:	113fffcc 	andi	r4,r2,65535
 1003190:	e0bfff17 	ldw	r2,-4(fp)
 1003194:	10800c84 	addi	r2,r2,50
 1003198:	117fffcc 	andi	r5,r2,65535
 100319c:	e0bfff17 	ldw	r2,-4(fp)
 10031a0:	10801904 	addi	r2,r2,100
 10031a4:	11bfffcc 	andi	r6,r2,65535
 10031a8:	008040b4 	movhi	r2,258
 10031ac:	10885904 	addi	r2,r2,8548
 10031b0:	d8800115 	stw	r2,4(sp)
 10031b4:	d8000015 	stw	zero,0(sp)
 10031b8:	300f883a 	mov	r7,r6
 10031bc:	280d883a 	mov	r6,r5
 10031c0:	200b883a 	mov	r5,r4
 10031c4:	1809883a 	mov	r4,r3
 10031c8:	100352c0 	call	100352c <lcddrawsqur>
	lcddrawsqur(Num_X+100,Num_X+150,Num_Y+50,Num_Y+100,BLACK, "  6");
 10031cc:	e0bffe17 	ldw	r2,-8(fp)
 10031d0:	10801904 	addi	r2,r2,100
 10031d4:	10ffffcc 	andi	r3,r2,65535
 10031d8:	e0bffe17 	ldw	r2,-8(fp)
 10031dc:	10802584 	addi	r2,r2,150
 10031e0:	113fffcc 	andi	r4,r2,65535
 10031e4:	e0bfff17 	ldw	r2,-4(fp)
 10031e8:	10800c84 	addi	r2,r2,50
 10031ec:	117fffcc 	andi	r5,r2,65535
 10031f0:	e0bfff17 	ldw	r2,-4(fp)
 10031f4:	10801904 	addi	r2,r2,100
 10031f8:	11bfffcc 	andi	r6,r2,65535
 10031fc:	008040b4 	movhi	r2,258
 1003200:	10885a04 	addi	r2,r2,8552
 1003204:	d8800115 	stw	r2,4(sp)
 1003208:	d8000015 	stw	zero,0(sp)
 100320c:	300f883a 	mov	r7,r6
 1003210:	280d883a 	mov	r6,r5
 1003214:	200b883a 	mov	r5,r4
 1003218:	1809883a 	mov	r4,r3
 100321c:	100352c0 	call	100352c <lcddrawsqur>
	lcddrawsqur(Num_X,Num_X+50,Num_Y+100,Num_Y+150,BLACK, "  7");
 1003220:	e0bffe17 	ldw	r2,-8(fp)
 1003224:	10ffffcc 	andi	r3,r2,65535
 1003228:	e0bffe17 	ldw	r2,-8(fp)
 100322c:	10800c84 	addi	r2,r2,50
 1003230:	113fffcc 	andi	r4,r2,65535
 1003234:	e0bfff17 	ldw	r2,-4(fp)
 1003238:	10801904 	addi	r2,r2,100
 100323c:	117fffcc 	andi	r5,r2,65535
 1003240:	e0bfff17 	ldw	r2,-4(fp)
 1003244:	10802584 	addi	r2,r2,150
 1003248:	11bfffcc 	andi	r6,r2,65535
 100324c:	008040b4 	movhi	r2,258
 1003250:	10885b04 	addi	r2,r2,8556
 1003254:	d8800115 	stw	r2,4(sp)
 1003258:	d8000015 	stw	zero,0(sp)
 100325c:	300f883a 	mov	r7,r6
 1003260:	280d883a 	mov	r6,r5
 1003264:	200b883a 	mov	r5,r4
 1003268:	1809883a 	mov	r4,r3
 100326c:	100352c0 	call	100352c <lcddrawsqur>
	lcddrawsqur(Num_X+50,Num_X+100,Num_Y+100,Num_Y+150,BLACK, "  8");
 1003270:	e0bffe17 	ldw	r2,-8(fp)
 1003274:	10800c84 	addi	r2,r2,50
 1003278:	10ffffcc 	andi	r3,r2,65535
 100327c:	e0bffe17 	ldw	r2,-8(fp)
 1003280:	10801904 	addi	r2,r2,100
 1003284:	113fffcc 	andi	r4,r2,65535
 1003288:	e0bfff17 	ldw	r2,-4(fp)
 100328c:	10801904 	addi	r2,r2,100
 1003290:	117fffcc 	andi	r5,r2,65535
 1003294:	e0bfff17 	ldw	r2,-4(fp)
 1003298:	10802584 	addi	r2,r2,150
 100329c:	11bfffcc 	andi	r6,r2,65535
 10032a0:	008040b4 	movhi	r2,258
 10032a4:	10885c04 	addi	r2,r2,8560
 10032a8:	d8800115 	stw	r2,4(sp)
 10032ac:	d8000015 	stw	zero,0(sp)
 10032b0:	300f883a 	mov	r7,r6
 10032b4:	280d883a 	mov	r6,r5
 10032b8:	200b883a 	mov	r5,r4
 10032bc:	1809883a 	mov	r4,r3
 10032c0:	100352c0 	call	100352c <lcddrawsqur>
	lcddrawsqur(Num_X+100,Num_X+150,Num_Y+100,Num_Y+150,BLACK, "  9");
 10032c4:	e0bffe17 	ldw	r2,-8(fp)
 10032c8:	10801904 	addi	r2,r2,100
 10032cc:	10ffffcc 	andi	r3,r2,65535
 10032d0:	e0bffe17 	ldw	r2,-8(fp)
 10032d4:	10802584 	addi	r2,r2,150
 10032d8:	113fffcc 	andi	r4,r2,65535
 10032dc:	e0bfff17 	ldw	r2,-4(fp)
 10032e0:	10801904 	addi	r2,r2,100
 10032e4:	117fffcc 	andi	r5,r2,65535
 10032e8:	e0bfff17 	ldw	r2,-4(fp)
 10032ec:	10802584 	addi	r2,r2,150
 10032f0:	11bfffcc 	andi	r6,r2,65535
 10032f4:	008040b4 	movhi	r2,258
 10032f8:	10885d04 	addi	r2,r2,8564
 10032fc:	d8800115 	stw	r2,4(sp)
 1003300:	d8000015 	stw	zero,0(sp)
 1003304:	300f883a 	mov	r7,r6
 1003308:	280d883a 	mov	r6,r5
 100330c:	200b883a 	mov	r5,r4
 1003310:	1809883a 	mov	r4,r3
 1003314:	100352c0 	call	100352c <lcddrawsqur>
	lcddrawsqur(Num_X,Num_X+50,Num_Y+150,Num_Y+200,BLACK, " ok");
 1003318:	e0bffe17 	ldw	r2,-8(fp)
 100331c:	10ffffcc 	andi	r3,r2,65535
 1003320:	e0bffe17 	ldw	r2,-8(fp)
 1003324:	10800c84 	addi	r2,r2,50
 1003328:	113fffcc 	andi	r4,r2,65535
 100332c:	e0bfff17 	ldw	r2,-4(fp)
 1003330:	10802584 	addi	r2,r2,150
 1003334:	117fffcc 	andi	r5,r2,65535
 1003338:	e0bfff17 	ldw	r2,-4(fp)
 100333c:	10803204 	addi	r2,r2,200
 1003340:	11bfffcc 	andi	r6,r2,65535
 1003344:	008040b4 	movhi	r2,258
 1003348:	10885e04 	addi	r2,r2,8568
 100334c:	d8800115 	stw	r2,4(sp)
 1003350:	d8000015 	stw	zero,0(sp)
 1003354:	300f883a 	mov	r7,r6
 1003358:	280d883a 	mov	r6,r5
 100335c:	200b883a 	mov	r5,r4
 1003360:	1809883a 	mov	r4,r3
 1003364:	100352c0 	call	100352c <lcddrawsqur>
	lcddrawsqur(Num_X+50,Num_X+100,Num_Y+150,Num_Y+200,BLACK, "  0");
 1003368:	e0bffe17 	ldw	r2,-8(fp)
 100336c:	10800c84 	addi	r2,r2,50
 1003370:	10ffffcc 	andi	r3,r2,65535
 1003374:	e0bffe17 	ldw	r2,-8(fp)
 1003378:	10801904 	addi	r2,r2,100
 100337c:	113fffcc 	andi	r4,r2,65535
 1003380:	e0bfff17 	ldw	r2,-4(fp)
 1003384:	10802584 	addi	r2,r2,150
 1003388:	117fffcc 	andi	r5,r2,65535
 100338c:	e0bfff17 	ldw	r2,-4(fp)
 1003390:	10803204 	addi	r2,r2,200
 1003394:	11bfffcc 	andi	r6,r2,65535
 1003398:	008040b4 	movhi	r2,258
 100339c:	10885f04 	addi	r2,r2,8572
 10033a0:	d8800115 	stw	r2,4(sp)
 10033a4:	d8000015 	stw	zero,0(sp)
 10033a8:	300f883a 	mov	r7,r6
 10033ac:	280d883a 	mov	r6,r5
 10033b0:	200b883a 	mov	r5,r4
 10033b4:	1809883a 	mov	r4,r3
 10033b8:	100352c0 	call	100352c <lcddrawsqur>
	lcddrawsqur(Num_X+100,Num_X+150,Num_Y+150,Num_Y+200,BLACK, " clc");
 10033bc:	e0bffe17 	ldw	r2,-8(fp)
 10033c0:	10801904 	addi	r2,r2,100
 10033c4:	10ffffcc 	andi	r3,r2,65535
 10033c8:	e0bffe17 	ldw	r2,-8(fp)
 10033cc:	10802584 	addi	r2,r2,150
 10033d0:	113fffcc 	andi	r4,r2,65535
 10033d4:	e0bfff17 	ldw	r2,-4(fp)
 10033d8:	10802584 	addi	r2,r2,150
 10033dc:	117fffcc 	andi	r5,r2,65535
 10033e0:	e0bfff17 	ldw	r2,-4(fp)
 10033e4:	10803204 	addi	r2,r2,200
 10033e8:	11bfffcc 	andi	r6,r2,65535
 10033ec:	008040b4 	movhi	r2,258
 10033f0:	10886004 	addi	r2,r2,8576
 10033f4:	d8800115 	stw	r2,4(sp)
 10033f8:	d8000015 	stw	zero,0(sp)
 10033fc:	300f883a 	mov	r7,r6
 1003400:	280d883a 	mov	r6,r5
 1003404:	200b883a 	mov	r5,r4
 1003408:	1809883a 	mov	r4,r3
 100340c:	100352c0 	call	100352c <lcddrawsqur>

	lcddrawsqur(Num_X,Num_X+50,Num_Y+210,Num_Y+250,'black', "Mode");//0	/1		/2
 1003410:	e0bffe17 	ldw	r2,-8(fp)
 1003414:	10ffffcc 	andi	r3,r2,65535
 1003418:	e0bffe17 	ldw	r2,-8(fp)
 100341c:	10800c84 	addi	r2,r2,50
 1003420:	113fffcc 	andi	r4,r2,65535
 1003424:	e0bfff17 	ldw	r2,-4(fp)
 1003428:	10803484 	addi	r2,r2,210
 100342c:	117fffcc 	andi	r5,r2,65535
 1003430:	e0bfff17 	ldw	r2,-4(fp)
 1003434:	10803e84 	addi	r2,r2,250
 1003438:	11bfffcc 	andi	r6,r2,65535
 100343c:	008040b4 	movhi	r2,258
 1003440:	10886204 	addi	r2,r2,8584
 1003444:	d8800115 	stw	r2,4(sp)
 1003448:	0098dac4 	movi	r2,25451
 100344c:	d8800015 	stw	r2,0(sp)
 1003450:	300f883a 	mov	r7,r6
 1003454:	280d883a 	mov	r6,r5
 1003458:	200b883a 	mov	r5,r4
 100345c:	1809883a 	mov	r4,r3
 1003460:	100352c0 	call	100352c <lcddrawsqur>
	lcddrawsqur(Num_X+50,Num_X+100,Num_Y+210,Num_Y+250,'black', "F_L");
 1003464:	e0bffe17 	ldw	r2,-8(fp)
 1003468:	10800c84 	addi	r2,r2,50
 100346c:	10ffffcc 	andi	r3,r2,65535
 1003470:	e0bffe17 	ldw	r2,-8(fp)
 1003474:	10801904 	addi	r2,r2,100
 1003478:	113fffcc 	andi	r4,r2,65535
 100347c:	e0bfff17 	ldw	r2,-4(fp)
 1003480:	10803484 	addi	r2,r2,210
 1003484:	117fffcc 	andi	r5,r2,65535
 1003488:	e0bfff17 	ldw	r2,-4(fp)
 100348c:	10803e84 	addi	r2,r2,250
 1003490:	11bfffcc 	andi	r6,r2,65535
 1003494:	008040b4 	movhi	r2,258
 1003498:	10886404 	addi	r2,r2,8592
 100349c:	d8800115 	stw	r2,4(sp)
 10034a0:	0098dac4 	movi	r2,25451
 10034a4:	d8800015 	stw	r2,0(sp)
 10034a8:	300f883a 	mov	r7,r6
 10034ac:	280d883a 	mov	r6,r5
 10034b0:	200b883a 	mov	r5,r4
 10034b4:	1809883a 	mov	r4,r3
 10034b8:	100352c0 	call	100352c <lcddrawsqur>
	lcddrawsqur(Num_X+100,Num_X+150,Num_Y+210,Num_Y+250,'black', "F_H");
 10034bc:	e0bffe17 	ldw	r2,-8(fp)
 10034c0:	10801904 	addi	r2,r2,100
 10034c4:	10ffffcc 	andi	r3,r2,65535
 10034c8:	e0bffe17 	ldw	r2,-8(fp)
 10034cc:	10802584 	addi	r2,r2,150
 10034d0:	113fffcc 	andi	r4,r2,65535
 10034d4:	e0bfff17 	ldw	r2,-4(fp)
 10034d8:	10803484 	addi	r2,r2,210
 10034dc:	117fffcc 	andi	r5,r2,65535
 10034e0:	e0bfff17 	ldw	r2,-4(fp)
 10034e4:	10803e84 	addi	r2,r2,250
 10034e8:	11bfffcc 	andi	r6,r2,65535
 10034ec:	008040b4 	movhi	r2,258
 10034f0:	10886504 	addi	r2,r2,8596
 10034f4:	d8800115 	stw	r2,4(sp)
 10034f8:	0098dac4 	movi	r2,25451
 10034fc:	d8800015 	stw	r2,0(sp)
 1003500:	300f883a 	mov	r7,r6
 1003504:	280d883a 	mov	r6,r5
 1003508:	200b883a 	mov	r5,r4
 100350c:	1809883a 	mov	r4,r3
 1003510:	100352c0 	call	100352c <lcddrawsqur>

}
 1003514:	0001883a 	nop
 1003518:	e037883a 	mov	sp,fp
 100351c:	dfc00117 	ldw	ra,4(sp)
 1003520:	df000017 	ldw	fp,0(sp)
 1003524:	dec00204 	addi	sp,sp,8
 1003528:	f800283a 	ret

0100352c <lcddrawsqur>:

void lcddrawsqur(u16 xs,u16 xe,u16 ys, u16 ye, u16 color, const char*str){
 100352c:	defff404 	addi	sp,sp,-48
 1003530:	dfc00b15 	stw	ra,44(sp)
 1003534:	df000a15 	stw	fp,40(sp)
 1003538:	df000a04 	addi	fp,sp,40
 100353c:	2011883a 	mov	r8,r4
 1003540:	3009883a 	mov	r4,r6
 1003544:	3807883a 	mov	r3,r7
 1003548:	e0800217 	ldw	r2,8(fp)
 100354c:	e23ffb0d 	sth	r8,-20(fp)
 1003550:	e17ffc0d 	sth	r5,-16(fp)
 1003554:	e13ffd0d 	sth	r4,-12(fp)
 1003558:	e0fffe0d 	sth	r3,-8(fp)
 100355c:	e0bfff0d 	sth	r2,-4(fp)
	u16 localX,localY;
	u8 k = 0;
 1003560:	e03ff905 	stb	zero,-28(fp)
	localX=((xs+xe)/2)-18;
 1003564:	e0fffb0b 	ldhu	r3,-20(fp)
 1003568:	e0bffc0b 	ldhu	r2,-16(fp)
 100356c:	1885883a 	add	r2,r3,r2
 1003570:	1006d7fa 	srli	r3,r2,31
 1003574:	1885883a 	add	r2,r3,r2
 1003578:	1005d07a 	srai	r2,r2,1
 100357c:	10bffb84 	addi	r2,r2,-18
 1003580:	e0bff98d 	sth	r2,-26(fp)
	localY=(ys+ye)/2;
 1003584:	e0fffd0b 	ldhu	r3,-12(fp)
 1003588:	e0bffe0b 	ldhu	r2,-8(fp)
 100358c:	1885883a 	add	r2,r3,r2
 1003590:	1006d7fa 	srli	r3,r2,31
 1003594:	1885883a 	add	r2,r3,r2
 1003598:	1005d07a 	srai	r2,r2,1
 100359c:	e0bffa0d 	sth	r2,-24(fp)
	lcdDrawVerLine(xs, ys, ye,color);
 10035a0:	e0bffb0b 	ldhu	r2,-20(fp)
 10035a4:	e0fffd0b 	ldhu	r3,-12(fp)
 10035a8:	e13ffe0b 	ldhu	r4,-8(fp)
 10035ac:	e17fff0b 	ldhu	r5,-4(fp)
 10035b0:	280f883a 	mov	r7,r5
 10035b4:	200d883a 	mov	r6,r4
 10035b8:	180b883a 	mov	r5,r3
 10035bc:	1009883a 	mov	r4,r2
 10035c0:	1001b080 	call	1001b08 <lcdDrawVerLine>
	lcdDrawVerLine(xe, ys, ye,color);
 10035c4:	e0bffc0b 	ldhu	r2,-16(fp)
 10035c8:	e0fffd0b 	ldhu	r3,-12(fp)
 10035cc:	e13ffe0b 	ldhu	r4,-8(fp)
 10035d0:	e17fff0b 	ldhu	r5,-4(fp)
 10035d4:	280f883a 	mov	r7,r5
 10035d8:	200d883a 	mov	r6,r4
 10035dc:	180b883a 	mov	r5,r3
 10035e0:	1009883a 	mov	r4,r2
 10035e4:	1001b080 	call	1001b08 <lcdDrawVerLine>
	lcdDrawHorLine(ys, xs, xe,color);
 10035e8:	e0bffd0b 	ldhu	r2,-12(fp)
 10035ec:	e0fffb0b 	ldhu	r3,-20(fp)
 10035f0:	e13ffc0b 	ldhu	r4,-16(fp)
 10035f4:	e17fff0b 	ldhu	r5,-4(fp)
 10035f8:	280f883a 	mov	r7,r5
 10035fc:	200d883a 	mov	r6,r4
 1003600:	180b883a 	mov	r5,r3
 1003604:	1009883a 	mov	r4,r2
 1003608:	1001d400 	call	1001d40 <lcdDrawHorLine>
	lcdDrawHorLine(ye, xs, xe,color);
 100360c:	e0bffe0b 	ldhu	r2,-8(fp)
 1003610:	e0fffb0b 	ldhu	r3,-20(fp)
 1003614:	e13ffc0b 	ldhu	r4,-16(fp)
 1003618:	e17fff0b 	ldhu	r5,-4(fp)
 100361c:	280f883a 	mov	r7,r5
 1003620:	200d883a 	mov	r6,r4
 1003624:	180b883a 	mov	r5,r3
 1003628:	1009883a 	mov	r4,r2
 100362c:	1001d400 	call	1001d40 <lcdDrawHorLine>

	while (str[k] != 0) {
 1003630:	00001d06 	br	10036a8 <lcddrawsqur+0x17c>
		lcdDrawPic(localX + k * 8, localY, 16, 8, BLACK, WHITE, ASCII8_16[str[k] - ' ']);
 1003634:	e0bff903 	ldbu	r2,-28(fp)
 1003638:	100490fa 	slli	r2,r2,3
 100363c:	1007883a 	mov	r3,r2
 1003640:	e0bff98b 	ldhu	r2,-26(fp)
 1003644:	1885883a 	add	r2,r3,r2
 1003648:	113fffcc 	andi	r4,r2,65535
 100364c:	e17ffa0b 	ldhu	r5,-24(fp)
 1003650:	e0bff903 	ldbu	r2,-28(fp)
 1003654:	e0c00317 	ldw	r3,12(fp)
 1003658:	1885883a 	add	r2,r3,r2
 100365c:	10800003 	ldbu	r2,0(r2)
 1003660:	10803fcc 	andi	r2,r2,255
 1003664:	1080201c 	xori	r2,r2,128
 1003668:	10bfe004 	addi	r2,r2,-128
 100366c:	10bff804 	addi	r2,r2,-32
 1003670:	1006913a 	slli	r3,r2,4
 1003674:	008040b4 	movhi	r2,258
 1003678:	10824704 	addi	r2,r2,2332
 100367c:	1885883a 	add	r2,r3,r2
 1003680:	d8800215 	stw	r2,8(sp)
 1003684:	00bfffd4 	movui	r2,65535
 1003688:	d8800115 	stw	r2,4(sp)
 100368c:	d8000015 	stw	zero,0(sp)
 1003690:	01c00204 	movi	r7,8
 1003694:	01800404 	movi	r6,16
 1003698:	10021c80 	call	10021c8 <lcdDrawPic>
		k++;
 100369c:	e0bff903 	ldbu	r2,-28(fp)
 10036a0:	10800044 	addi	r2,r2,1
 10036a4:	e0bff905 	stb	r2,-28(fp)
	lcdDrawVerLine(xs, ys, ye,color);
	lcdDrawVerLine(xe, ys, ye,color);
	lcdDrawHorLine(ys, xs, xe,color);
	lcdDrawHorLine(ye, xs, xe,color);

	while (str[k] != 0) {
 10036a8:	e0bff903 	ldbu	r2,-28(fp)
 10036ac:	e0c00317 	ldw	r3,12(fp)
 10036b0:	1885883a 	add	r2,r3,r2
 10036b4:	10800003 	ldbu	r2,0(r2)
 10036b8:	10803fcc 	andi	r2,r2,255
 10036bc:	1080201c 	xori	r2,r2,128
 10036c0:	10bfe004 	addi	r2,r2,-128
 10036c4:	103fdb1e 	bne	r2,zero,1003634 <__alt_data_end+0xff803634>
		lcdDrawPic(localX + k * 8, localY, 16, 8, BLACK, WHITE, ASCII8_16[str[k] - ' ']);
		k++;
	}
}
 10036c8:	0001883a 	nop
 10036cc:	e037883a 	mov	sp,fp
 10036d0:	dfc00117 	ldw	ra,4(sp)
 10036d4:	df000017 	ldw	fp,0(sp)
 10036d8:	dec00204 	addi	sp,sp,8
 10036dc:	f800283a 	ret

010036e0 <lcdDrawRect>:

void lcdDrawRect(u16 xs, u16 ys, u16 xe, u16 ye, u16 color)
{
 10036e0:	defff904 	addi	sp,sp,-28
 10036e4:	dfc00615 	stw	ra,24(sp)
 10036e8:	df000515 	stw	fp,20(sp)
 10036ec:	df000504 	addi	fp,sp,20
 10036f0:	2011883a 	mov	r8,r4
 10036f4:	3009883a 	mov	r4,r6
 10036f8:	3807883a 	mov	r3,r7
 10036fc:	e0800217 	ldw	r2,8(fp)
 1003700:	e23ffb0d 	sth	r8,-20(fp)
 1003704:	e17ffc0d 	sth	r5,-16(fp)
 1003708:	e13ffd0d 	sth	r4,-12(fp)
 100370c:	e0fffe0d 	sth	r3,-8(fp)
 1003710:	e0bfff0d 	sth	r2,-4(fp)
	lcdDrawHorLine(ys, xs, xe, color);
 1003714:	e0bffc0b 	ldhu	r2,-16(fp)
 1003718:	e0fffb0b 	ldhu	r3,-20(fp)
 100371c:	e13ffd0b 	ldhu	r4,-12(fp)
 1003720:	e17fff0b 	ldhu	r5,-4(fp)
 1003724:	280f883a 	mov	r7,r5
 1003728:	200d883a 	mov	r6,r4
 100372c:	180b883a 	mov	r5,r3
 1003730:	1009883a 	mov	r4,r2
 1003734:	1001d400 	call	1001d40 <lcdDrawHorLine>
	lcdDrawHorLine(ye, xs, xe, color);
 1003738:	e0bffe0b 	ldhu	r2,-8(fp)
 100373c:	e0fffb0b 	ldhu	r3,-20(fp)
 1003740:	e13ffd0b 	ldhu	r4,-12(fp)
 1003744:	e17fff0b 	ldhu	r5,-4(fp)
 1003748:	280f883a 	mov	r7,r5
 100374c:	200d883a 	mov	r6,r4
 1003750:	180b883a 	mov	r5,r3
 1003754:	1009883a 	mov	r4,r2
 1003758:	1001d400 	call	1001d40 <lcdDrawHorLine>
	lcdDrawVerLine(xs, ys, ye, color);
 100375c:	e0bffb0b 	ldhu	r2,-20(fp)
 1003760:	e0fffc0b 	ldhu	r3,-16(fp)
 1003764:	e13ffe0b 	ldhu	r4,-8(fp)
 1003768:	e17fff0b 	ldhu	r5,-4(fp)
 100376c:	280f883a 	mov	r7,r5
 1003770:	200d883a 	mov	r6,r4
 1003774:	180b883a 	mov	r5,r3
 1003778:	1009883a 	mov	r4,r2
 100377c:	1001b080 	call	1001b08 <lcdDrawVerLine>
	lcdDrawVerLine(xe, ys, ye, color);
 1003780:	e0bffd0b 	ldhu	r2,-12(fp)
 1003784:	e0fffc0b 	ldhu	r3,-16(fp)
 1003788:	e13ffe0b 	ldhu	r4,-8(fp)
 100378c:	e17fff0b 	ldhu	r5,-4(fp)
 1003790:	280f883a 	mov	r7,r5
 1003794:	200d883a 	mov	r6,r4
 1003798:	180b883a 	mov	r5,r3
 100379c:	1009883a 	mov	r4,r2
 10037a0:	1001b080 	call	1001b08 <lcdDrawVerLine>
}
 10037a4:	0001883a 	nop
 10037a8:	e037883a 	mov	sp,fp
 10037ac:	dfc00117 	ldw	ra,4(sp)
 10037b0:	df000017 	ldw	fp,0(sp)
 10037b4:	dec00204 	addi	sp,sp,8
 10037b8:	f800283a 	ret

010037bc <touchInit>:
int bit_array[bit_length]={0};
int bit_pointer = 0;
extern int mode = 0, Range_w = 0;//Range_w=0-F_L|1-F_H
extern int Num_X = 50,Num_Y = 40;

int touchInit(void) {
 10037bc:	defffe04 	addi	sp,sp,-8
 10037c0:	dfc00115 	stw	ra,4(sp)
 10037c4:	df000015 	stw	fp,0(sp)
 10037c8:	d839883a 	mov	fp,sp
	i2cInit();
 10037cc:	1000b7c0 	call	1000b7c <i2cInit>

	// normal mode
	i2cWriteReg(FT_DEVICE_ADDR, FT_DEV_MODE, 0);
 10037d0:	000d883a 	mov	r6,zero
 10037d4:	000b883a 	mov	r5,zero
 10037d8:	01001c04 	movi	r4,112
 10037dc:	10010c80 	call	10010c8 <i2cWriteReg>
	// polling mode
	i2cWriteReg(FT_DEVICE_ADDR, FT_ID_G_MODE, 0);
 10037e0:	000d883a 	mov	r6,zero
 10037e4:	01402904 	movi	r5,164
 10037e8:	01001c04 	movi	r4,112
 10037ec:	10010c80 	call	10010c8 <i2cWriteReg>
	// threshold
	i2cWriteReg(FT_DEVICE_ADDR, FT_ID_G_THGROUP, 22);
 10037f0:	01800584 	movi	r6,22
 10037f4:	01402004 	movi	r5,128
 10037f8:	01001c04 	movi	r4,112
 10037fc:	10010c80 	call	10010c8 <i2cWriteReg>
	// auto calibration mode
	i2cWriteReg(FT_DEVICE_ADDR, FT_ID_G_AUTO_CLB_MODE, 0);
 1003800:	000d883a 	mov	r6,zero
 1003804:	01402804 	movi	r5,160
 1003808:	01001c04 	movi	r4,112
 100380c:	10010c80 	call	10010c8 <i2cWriteReg>
	// period of active status 12
	i2cWriteReg(FT_DEVICE_ADDR, FT_ID_G_PERIODACTIVE, 12);
 1003810:	01800304 	movi	r6,12
 1003814:	01402204 	movi	r5,136
 1003818:	01001c04 	movi	r4,112
 100381c:	10010c80 	call	10010c8 <i2cWriteReg>

	touchIrqInit();
 1003820:	100383c0 	call	100383c <touchIrqInit>
	return 0;
 1003824:	0005883a 	mov	r2,zero
}
 1003828:	e037883a 	mov	sp,fp
 100382c:	dfc00117 	ldw	ra,4(sp)
 1003830:	df000017 	ldw	fp,0(sp)
 1003834:	dec00204 	addi	sp,sp,8
 1003838:	f800283a 	ret

0100383c <touchIrqInit>:

int touchIrqInit(void) {
 100383c:	defffe04 	addi	sp,sp,-8
 1003840:	dfc00115 	stw	ra,4(sp)
 1003844:	df000015 	stw	fp,0(sp)
 1003848:	d839883a 	mov	fp,sp
	IOWR(TOUCH_IRQ_BASE, 2, 0x01);
 100384c:	00c00044 	movi	r3,1
 1003850:	00801034 	movhi	r2,64
 1003854:	10843e04 	addi	r2,r2,4344
 1003858:	10c00035 	stwio	r3,0(r2)
	IOWR(TOUCH_IRQ_BASE, 3, 0x00);
 100385c:	0007883a 	mov	r3,zero
 1003860:	00801034 	movhi	r2,64
 1003864:	10843f04 	addi	r2,r2,4348
 1003868:	10c00035 	stwio	r3,0(r2)
	return alt_irq_register(TOUCH_IRQ_IRQ, NULL, (void *) touchIsr);
 100386c:	01804034 	movhi	r6,256
 1003870:	318e9104 	addi	r6,r6,14916
 1003874:	000b883a 	mov	r5,zero
 1003878:	0009883a 	mov	r4,zero
 100387c:	1015b340 	call	1015b34 <alt_irq_register>
}
 1003880:	e037883a 	mov	sp,fp
 1003884:	dfc00117 	ldw	ra,4(sp)
 1003888:	df000017 	ldw	fp,0(sp)
 100388c:	dec00204 	addi	sp,sp,8
 1003890:	f800283a 	ret

01003894 <touchResponse>:

tcdata local = { .id = 1, .status = TOUCH_NONE, };

int touchResponse(int x_low, int x_high, int y_low, int y_high, int page) {//
 1003894:	defff904 	addi	sp,sp,-28
 1003898:	dfc00615 	stw	ra,24(sp)
 100389c:	df000515 	stw	fp,20(sp)
 10038a0:	df000504 	addi	fp,sp,20
 10038a4:	e13ffc15 	stw	r4,-16(fp)
 10038a8:	e17ffd15 	stw	r5,-12(fp)
 10038ac:	e1bffe15 	stw	r6,-8(fp)
 10038b0:	e1ffff15 	stw	r7,-4(fp)
	if((local.now.x > x_low) && (local.now.x < x_high) && (local.now.y > y_low) && (local.now.y < y_high) && (local.status == 0))
 10038b4:	008040b4 	movhi	r2,258
 10038b8:	108f6004 	addi	r2,r2,15744
 10038bc:	1080018b 	ldhu	r2,6(r2)
 10038c0:	10bfffcc 	andi	r2,r2,65535
 10038c4:	e0fffc17 	ldw	r3,-16(fp)
 10038c8:	18802a0e 	bge	r3,r2,1003974 <touchResponse+0xe0>
 10038cc:	008040b4 	movhi	r2,258
 10038d0:	108f6004 	addi	r2,r2,15744
 10038d4:	1080018b 	ldhu	r2,6(r2)
 10038d8:	10ffffcc 	andi	r3,r2,65535
 10038dc:	e0bffd17 	ldw	r2,-12(fp)
 10038e0:	1880240e 	bge	r3,r2,1003974 <touchResponse+0xe0>
 10038e4:	008040b4 	movhi	r2,258
 10038e8:	108f6004 	addi	r2,r2,15744
 10038ec:	1080020b 	ldhu	r2,8(r2)
 10038f0:	10bfffcc 	andi	r2,r2,65535
 10038f4:	e0fffe17 	ldw	r3,-8(fp)
 10038f8:	18801e0e 	bge	r3,r2,1003974 <touchResponse+0xe0>
 10038fc:	008040b4 	movhi	r2,258
 1003900:	108f6004 	addi	r2,r2,15744
 1003904:	1080020b 	ldhu	r2,8(r2)
 1003908:	10ffffcc 	andi	r3,r2,65535
 100390c:	e0bfff17 	ldw	r2,-4(fp)
 1003910:	1880180e 	bge	r3,r2,1003974 <touchResponse+0xe0>
 1003914:	008040b4 	movhi	r2,258
 1003918:	108f6004 	addi	r2,r2,15744
 100391c:	10800017 	ldw	r2,0(r2)
 1003920:	1000141e 	bne	r2,zero,1003974 <touchResponse+0xe0>
	{
		lcdRectClear(x_low, y_low, x_high,y_high, DGRAY);
 1003924:	e0bffc17 	ldw	r2,-16(fp)
 1003928:	10ffffcc 	andi	r3,r2,65535
 100392c:	e0bffe17 	ldw	r2,-8(fp)
 1003930:	113fffcc 	andi	r4,r2,65535
 1003934:	e0bffd17 	ldw	r2,-12(fp)
 1003938:	117fffcc 	andi	r5,r2,65535
 100393c:	e0bfff17 	ldw	r2,-4(fp)
 1003940:	11bfffcc 	andi	r6,r2,65535
 1003944:	009efbc4 	movi	r2,31727
 1003948:	d8800015 	stw	r2,0(sp)
 100394c:	300f883a 	mov	r7,r6
 1003950:	280d883a 	mov	r6,r5
 1003954:	200b883a 	mov	r5,r4
 1003958:	1809883a 	mov	r4,r3
 100395c:	10019640 	call	1001964 <lcdRectClear>
		printf("Touch Response!\n");
 1003960:	010040b4 	movhi	r4,258
 1003964:	210e6604 	addi	r4,r4,14744
 1003968:	1005ad80 	call	1005ad8 <puts>
		return 1;
 100396c:	00800044 	movi	r2,1
 1003970:	00002f06 	br	1003a30 <touchResponse+0x19c>
	}
	else if((local.now.x > x_low) && (local.now.x < x_high) && (local.now.y > y_low) && (local.now.y < y_high) && (local.status == 1))
 1003974:	008040b4 	movhi	r2,258
 1003978:	108f6004 	addi	r2,r2,15744
 100397c:	1080018b 	ldhu	r2,6(r2)
 1003980:	10bfffcc 	andi	r2,r2,65535
 1003984:	e0fffc17 	ldw	r3,-16(fp)
 1003988:	1880280e 	bge	r3,r2,1003a2c <touchResponse+0x198>
 100398c:	008040b4 	movhi	r2,258
 1003990:	108f6004 	addi	r2,r2,15744
 1003994:	1080018b 	ldhu	r2,6(r2)
 1003998:	10ffffcc 	andi	r3,r2,65535
 100399c:	e0bffd17 	ldw	r2,-12(fp)
 10039a0:	1880220e 	bge	r3,r2,1003a2c <touchResponse+0x198>
 10039a4:	008040b4 	movhi	r2,258
 10039a8:	108f6004 	addi	r2,r2,15744
 10039ac:	1080020b 	ldhu	r2,8(r2)
 10039b0:	10bfffcc 	andi	r2,r2,65535
 10039b4:	e0fffe17 	ldw	r3,-8(fp)
 10039b8:	18801c0e 	bge	r3,r2,1003a2c <touchResponse+0x198>
 10039bc:	008040b4 	movhi	r2,258
 10039c0:	108f6004 	addi	r2,r2,15744
 10039c4:	1080020b 	ldhu	r2,8(r2)
 10039c8:	10ffffcc 	andi	r3,r2,65535
 10039cc:	e0bfff17 	ldw	r2,-4(fp)
 10039d0:	1880160e 	bge	r3,r2,1003a2c <touchResponse+0x198>
 10039d4:	008040b4 	movhi	r2,258
 10039d8:	108f6004 	addi	r2,r2,15744
 10039dc:	10800017 	ldw	r2,0(r2)
 10039e0:	10800058 	cmpnei	r2,r2,1
 10039e4:	1000111e 	bne	r2,zero,1003a2c <touchResponse+0x198>
	{
		lcdRectClear(x_low, y_low, x_high,y_high, BACKGROUND);
 10039e8:	e0bffc17 	ldw	r2,-16(fp)
 10039ec:	10ffffcc 	andi	r3,r2,65535
 10039f0:	e0bffe17 	ldw	r2,-8(fp)
 10039f4:	113fffcc 	andi	r4,r2,65535
 10039f8:	e0bffd17 	ldw	r2,-12(fp)
 10039fc:	117fffcc 	andi	r5,r2,65535
 1003a00:	e0bfff17 	ldw	r2,-4(fp)
 1003a04:	11bfffcc 	andi	r6,r2,65535
 1003a08:	00bfffd4 	movui	r2,65535
 1003a0c:	d8800015 	stw	r2,0(sp)
 1003a10:	300f883a 	mov	r7,r6
 1003a14:	280d883a 	mov	r6,r5
 1003a18:	200b883a 	mov	r5,r4
 1003a1c:	1809883a 	mov	r4,r3
 1003a20:	10019640 	call	1001964 <lcdRectClear>
		return 0;
 1003a24:	0005883a 	mov	r2,zero
 1003a28:	00000106 	br	1003a30 <touchResponse+0x19c>
	}
	else
		return 2;
 1003a2c:	00800084 	movi	r2,2
}
 1003a30:	e037883a 	mov	sp,fp
 1003a34:	dfc00117 	ldw	ra,4(sp)
 1003a38:	df000017 	ldw	fp,0(sp)
 1003a3c:	dec00204 	addi	sp,sp,8
 1003a40:	f800283a 	ret

01003a44 <touchIsr>:
int model=0;
int status_value;
int pause1=0;
unsigned char TouchValidFlag=0;
char TouchValue='0';
void touchIsr(void* isr_context) {
 1003a44:	defffd04 	addi	sp,sp,-12
 1003a48:	dfc00215 	stw	ra,8(sp)
 1003a4c:	df000115 	stw	fp,4(sp)
 1003a50:	df000104 	addi	fp,sp,4
 1003a54:	e13fff15 	stw	r4,-4(fp)
	IOWR(TOUCH_IRQ_BASE, 3, 0x00);
 1003a58:	0007883a 	mov	r3,zero
 1003a5c:	00801034 	movhi	r2,64
 1003a60:	10843f04 	addi	r2,r2,4348
 1003a64:	10c00035 	stwio	r3,0(r2)

	touchGetRaw(&local);
 1003a68:	010040b4 	movhi	r4,258
 1003a6c:	210f6004 	addi	r4,r4,15744
 1003a70:	10055900 	call	1005590 <touchGetRaw>
	TouchValidFlag=1;
 1003a74:	00800044 	movi	r2,1
 1003a78:	d0a01d05 	stb	r2,-32652(gp)
	status_value=local.status;
 1003a7c:	008040b4 	movhi	r2,258
 1003a80:	108f6004 	addi	r2,r2,15744
 1003a84:	10800017 	ldw	r2,0(r2)
 1003a88:	d0a01e15 	stw	r2,-32648(gp)
	button_table(0);
 1003a8c:	0009883a 	mov	r4,zero
 1003a90:	1003aac0 	call	1003aac <button_table>

}
 1003a94:	0001883a 	nop
 1003a98:	e037883a 	mov	sp,fp
 1003a9c:	dfc00117 	ldw	ra,4(sp)
 1003aa0:	df000017 	ldw	fp,0(sp)
 1003aa4:	dec00204 	addi	sp,sp,8
 1003aa8:	f800283a 	ret

01003aac <button_table>:

void button_table(int page){
 1003aac:	defff804 	addi	sp,sp,-32
 1003ab0:	dfc00715 	stw	ra,28(sp)
 1003ab4:	df000615 	stw	fp,24(sp)
 1003ab8:	df000604 	addi	fp,sp,24
 1003abc:	e13fff15 	stw	r4,-4(fp)
	/****************** -1- *********************/
	if(touchResponse(Num_X, Num_X+50, Num_Y, Num_Y+50, page) == 1)
 1003ac0:	d0e00117 	ldw	r3,-32764(gp)
 1003ac4:	d0a00117 	ldw	r2,-32764(gp)
 1003ac8:	11000c84 	addi	r4,r2,50
 1003acc:	d1600217 	ldw	r5,-32760(gp)
 1003ad0:	d0a00217 	ldw	r2,-32760(gp)
 1003ad4:	11800c84 	addi	r6,r2,50
 1003ad8:	e0bfff17 	ldw	r2,-4(fp)
 1003adc:	d8800015 	stw	r2,0(sp)
 1003ae0:	300f883a 	mov	r7,r6
 1003ae4:	280d883a 	mov	r6,r5
 1003ae8:	200b883a 	mov	r5,r4
 1003aec:	1809883a 	mov	r4,r3
 1003af0:	10038940 	call	1003894 <touchResponse>
 1003af4:	10800058 	cmpnei	r2,r2,1
 1003af8:	10004a1e 	bne	r2,zero,1003c24 <button_table+0x178>
	{
		/*Begin*/
		if((bit_pointer == 0) && (Range_w)){
 1003afc:	d0a01817 	ldw	r2,-32672(gp)
 1003b00:	10000a1e 	bne	r2,zero,1003b2c <button_table+0x80>
 1003b04:	d0a01a17 	ldw	r2,-32664(gp)
 1003b08:	10000826 	beq	r2,zero,1003b2c <button_table+0x80>
			lcdRectClear(130, 425, 195, 437, BACKGROUND);
 1003b0c:	00bfffd4 	movui	r2,65535
 1003b10:	d8800015 	stw	r2,0(sp)
 1003b14:	01c06d44 	movi	r7,437
 1003b18:	018030c4 	movi	r6,195
 1003b1c:	01406a44 	movi	r5,425
 1003b20:	01002084 	movi	r4,130
 1003b24:	10019640 	call	1001964 <lcdRectClear>
 1003b28:	00000b06 	br	1003b58 <button_table+0xac>
		}
		else if((bit_pointer == 0) && (!Range_w)){
 1003b2c:	d0a01817 	ldw	r2,-32672(gp)
 1003b30:	1000091e 	bne	r2,zero,1003b58 <button_table+0xac>
 1003b34:	d0a01a17 	ldw	r2,-32664(gp)
 1003b38:	1000071e 	bne	r2,zero,1003b58 <button_table+0xac>
			lcdRectClear(130, 385, 195, 397, BACKGROUND);
 1003b3c:	00bfffd4 	movui	r2,65535
 1003b40:	d8800015 	stw	r2,0(sp)
 1003b44:	01c06344 	movi	r7,397
 1003b48:	018030c4 	movi	r6,195
 1003b4c:	01406044 	movi	r5,385
 1003b50:	01002084 	movi	r4,130
 1003b54:	10019640 	call	1001964 <lcdRectClear>
		}

		if(bit_array <= (bit_length-1))
 1003b58:	008040b4 	movhi	r2,258
 1003b5c:	10967404 	addi	r2,r2,22992
 1003b60:	108002a8 	cmpgeui	r2,r2,10
 1003b64:	1000501e 	bne	r2,zero,1003ca8 <button_table+0x1fc>
		{
			bit_pointer++;
 1003b68:	d0a01817 	ldw	r2,-32672(gp)
 1003b6c:	10800044 	addi	r2,r2,1
 1003b70:	d0a01815 	stw	r2,-32672(gp)
			bit_array[bit_pointer]=1;
 1003b74:	d0e01817 	ldw	r3,-32672(gp)
 1003b78:	008040b4 	movhi	r2,258
 1003b7c:	10967404 	addi	r2,r2,22992
 1003b80:	18c7883a 	add	r3,r3,r3
 1003b84:	18c7883a 	add	r3,r3,r3
 1003b88:	10c5883a 	add	r2,r2,r3
 1003b8c:	00c00044 	movi	r3,1
 1003b90:	10c00015 	stw	r3,0(r2)
			if(Range_w)
 1003b94:	d0a01a17 	ldw	r2,-32664(gp)
 1003b98:	10001126 	beq	r2,zero,1003be0 <button_table+0x134>
				lcdDispDecSmall(130+(bit_pointer*9), 425, BLACK, WHITE, bit_array[bit_pointer]);
 1003b9c:	d0a01817 	ldw	r2,-32672(gp)
 1003ba0:	10800264 	muli	r2,r2,9
 1003ba4:	10802084 	addi	r2,r2,130
 1003ba8:	113fffcc 	andi	r4,r2,65535
 1003bac:	d0e01817 	ldw	r3,-32672(gp)
 1003bb0:	008040b4 	movhi	r2,258
 1003bb4:	10967404 	addi	r2,r2,22992
 1003bb8:	18c7883a 	add	r3,r3,r3
 1003bbc:	18c7883a 	add	r3,r3,r3
 1003bc0:	10c5883a 	add	r2,r2,r3
 1003bc4:	10800017 	ldw	r2,0(r2)
 1003bc8:	d8800015 	stw	r2,0(sp)
 1003bcc:	01ffffd4 	movui	r7,65535
 1003bd0:	000d883a 	mov	r6,zero
 1003bd4:	01406a44 	movi	r5,425
 1003bd8:	1002b180 	call	1002b18 <lcdDispDecSmall>
 1003bdc:	00003206 	br	1003ca8 <button_table+0x1fc>
			else
				lcdDispDecSmall(130+(bit_pointer*9), 385, BLACK, WHITE, bit_array[bit_pointer]);
 1003be0:	d0a01817 	ldw	r2,-32672(gp)
 1003be4:	10800264 	muli	r2,r2,9
 1003be8:	10802084 	addi	r2,r2,130
 1003bec:	113fffcc 	andi	r4,r2,65535
 1003bf0:	d0e01817 	ldw	r3,-32672(gp)
 1003bf4:	008040b4 	movhi	r2,258
 1003bf8:	10967404 	addi	r2,r2,22992
 1003bfc:	18c7883a 	add	r3,r3,r3
 1003c00:	18c7883a 	add	r3,r3,r3
 1003c04:	10c5883a 	add	r2,r2,r3
 1003c08:	10800017 	ldw	r2,0(r2)
 1003c0c:	d8800015 	stw	r2,0(sp)
 1003c10:	01ffffd4 	movui	r7,65535
 1003c14:	000d883a 	mov	r6,zero
 1003c18:	01406044 	movi	r5,385
 1003c1c:	1002b180 	call	1002b18 <lcdDispDecSmall>
 1003c20:	00002106 	br	1003ca8 <button_table+0x1fc>
		}
		/*End*/
	}
	else if(touchResponse(Num_X, Num_X+50, Num_Y, Num_Y+50, page) == 0)
 1003c24:	d0e00117 	ldw	r3,-32764(gp)
 1003c28:	d0a00117 	ldw	r2,-32764(gp)
 1003c2c:	11000c84 	addi	r4,r2,50
 1003c30:	d1600217 	ldw	r5,-32760(gp)
 1003c34:	d0a00217 	ldw	r2,-32760(gp)
 1003c38:	11800c84 	addi	r6,r2,50
 1003c3c:	e0bfff17 	ldw	r2,-4(fp)
 1003c40:	d8800015 	stw	r2,0(sp)
 1003c44:	300f883a 	mov	r7,r6
 1003c48:	280d883a 	mov	r6,r5
 1003c4c:	200b883a 	mov	r5,r4
 1003c50:	1809883a 	mov	r4,r3
 1003c54:	10038940 	call	1003894 <touchResponse>
 1003c58:	1000131e 	bne	r2,zero,1003ca8 <button_table+0x1fc>
	{
		lcddrawsqur(Num_X, Num_X+50, Num_Y, Num_Y+50, BLACK, "  1");
 1003c5c:	d0a00117 	ldw	r2,-32764(gp)
 1003c60:	10ffffcc 	andi	r3,r2,65535
 1003c64:	d0a00117 	ldw	r2,-32764(gp)
 1003c68:	10800c84 	addi	r2,r2,50
 1003c6c:	113fffcc 	andi	r4,r2,65535
 1003c70:	d0a00217 	ldw	r2,-32760(gp)
 1003c74:	117fffcc 	andi	r5,r2,65535
 1003c78:	d0a00217 	ldw	r2,-32760(gp)
 1003c7c:	10800c84 	addi	r2,r2,50
 1003c80:	11bfffcc 	andi	r6,r2,65535
 1003c84:	008040b4 	movhi	r2,258
 1003c88:	108e6a04 	addi	r2,r2,14760
 1003c8c:	d8800115 	stw	r2,4(sp)
 1003c90:	d8000015 	stw	zero,0(sp)
 1003c94:	300f883a 	mov	r7,r6
 1003c98:	280d883a 	mov	r6,r5
 1003c9c:	200b883a 	mov	r5,r4
 1003ca0:	1809883a 	mov	r4,r3
 1003ca4:	100352c0 	call	100352c <lcddrawsqur>
	}
	/****************** -2- *********************/
	if(touchResponse(Num_X+50, Num_X+100, Num_Y, Num_Y+50, page) == 1)
 1003ca8:	d0a00117 	ldw	r2,-32764(gp)
 1003cac:	10c00c84 	addi	r3,r2,50
 1003cb0:	d0a00117 	ldw	r2,-32764(gp)
 1003cb4:	11001904 	addi	r4,r2,100
 1003cb8:	d1600217 	ldw	r5,-32760(gp)
 1003cbc:	d0a00217 	ldw	r2,-32760(gp)
 1003cc0:	11800c84 	addi	r6,r2,50
 1003cc4:	e0bfff17 	ldw	r2,-4(fp)
 1003cc8:	d8800015 	stw	r2,0(sp)
 1003ccc:	300f883a 	mov	r7,r6
 1003cd0:	280d883a 	mov	r6,r5
 1003cd4:	200b883a 	mov	r5,r4
 1003cd8:	1809883a 	mov	r4,r3
 1003cdc:	10038940 	call	1003894 <touchResponse>
 1003ce0:	10800058 	cmpnei	r2,r2,1
 1003ce4:	1000491e 	bne	r2,zero,1003e0c <button_table+0x360>
	{
		/*Begin*/
		if((bit_pointer == 0) && (Range_w)){
 1003ce8:	d0a01817 	ldw	r2,-32672(gp)
 1003cec:	10000a1e 	bne	r2,zero,1003d18 <button_table+0x26c>
 1003cf0:	d0a01a17 	ldw	r2,-32664(gp)
 1003cf4:	10000826 	beq	r2,zero,1003d18 <button_table+0x26c>
			lcdRectClear(130, 425, 195, 437, BACKGROUND);
 1003cf8:	00bfffd4 	movui	r2,65535
 1003cfc:	d8800015 	stw	r2,0(sp)
 1003d00:	01c06d44 	movi	r7,437
 1003d04:	018030c4 	movi	r6,195
 1003d08:	01406a44 	movi	r5,425
 1003d0c:	01002084 	movi	r4,130
 1003d10:	10019640 	call	1001964 <lcdRectClear>
 1003d14:	00000b06 	br	1003d44 <button_table+0x298>
		}
		else if((bit_pointer == 0) && (!Range_w)){
 1003d18:	d0a01817 	ldw	r2,-32672(gp)
 1003d1c:	1000091e 	bne	r2,zero,1003d44 <button_table+0x298>
 1003d20:	d0a01a17 	ldw	r2,-32664(gp)
 1003d24:	1000071e 	bne	r2,zero,1003d44 <button_table+0x298>
			lcdRectClear(130, 385, 195, 397, BACKGROUND);
 1003d28:	00bfffd4 	movui	r2,65535
 1003d2c:	d8800015 	stw	r2,0(sp)
 1003d30:	01c06344 	movi	r7,397
 1003d34:	018030c4 	movi	r6,195
 1003d38:	01406044 	movi	r5,385
 1003d3c:	01002084 	movi	r4,130
 1003d40:	10019640 	call	1001964 <lcdRectClear>
		}

		if(bit_pointer <= bit_length-1)
 1003d44:	d0a01817 	ldw	r2,-32672(gp)
 1003d48:	10800288 	cmpgei	r2,r2,10
 1003d4c:	1000521e 	bne	r2,zero,1003e98 <button_table+0x3ec>
		{
			bit_pointer++;
 1003d50:	d0a01817 	ldw	r2,-32672(gp)
 1003d54:	10800044 	addi	r2,r2,1
 1003d58:	d0a01815 	stw	r2,-32672(gp)
			bit_array[bit_pointer]=2;
 1003d5c:	d0e01817 	ldw	r3,-32672(gp)
 1003d60:	008040b4 	movhi	r2,258
 1003d64:	10967404 	addi	r2,r2,22992
 1003d68:	18c7883a 	add	r3,r3,r3
 1003d6c:	18c7883a 	add	r3,r3,r3
 1003d70:	10c5883a 	add	r2,r2,r3
 1003d74:	00c00084 	movi	r3,2
 1003d78:	10c00015 	stw	r3,0(r2)
			if(Range_w)
 1003d7c:	d0a01a17 	ldw	r2,-32664(gp)
 1003d80:	10001126 	beq	r2,zero,1003dc8 <button_table+0x31c>
				lcdDispDecSmall(130+(bit_pointer*9), 425, BLACK, WHITE, bit_array[bit_pointer]);
 1003d84:	d0a01817 	ldw	r2,-32672(gp)
 1003d88:	10800264 	muli	r2,r2,9
 1003d8c:	10802084 	addi	r2,r2,130
 1003d90:	113fffcc 	andi	r4,r2,65535
 1003d94:	d0e01817 	ldw	r3,-32672(gp)
 1003d98:	008040b4 	movhi	r2,258
 1003d9c:	10967404 	addi	r2,r2,22992
 1003da0:	18c7883a 	add	r3,r3,r3
 1003da4:	18c7883a 	add	r3,r3,r3
 1003da8:	10c5883a 	add	r2,r2,r3
 1003dac:	10800017 	ldw	r2,0(r2)
 1003db0:	d8800015 	stw	r2,0(sp)
 1003db4:	01ffffd4 	movui	r7,65535
 1003db8:	000d883a 	mov	r6,zero
 1003dbc:	01406a44 	movi	r5,425
 1003dc0:	1002b180 	call	1002b18 <lcdDispDecSmall>
 1003dc4:	00003406 	br	1003e98 <button_table+0x3ec>
			else
				lcdDispDecSmall(130+(bit_pointer*9), 385, BLACK, WHITE, bit_array[bit_pointer]);
 1003dc8:	d0a01817 	ldw	r2,-32672(gp)
 1003dcc:	10800264 	muli	r2,r2,9
 1003dd0:	10802084 	addi	r2,r2,130
 1003dd4:	113fffcc 	andi	r4,r2,65535
 1003dd8:	d0e01817 	ldw	r3,-32672(gp)
 1003ddc:	008040b4 	movhi	r2,258
 1003de0:	10967404 	addi	r2,r2,22992
 1003de4:	18c7883a 	add	r3,r3,r3
 1003de8:	18c7883a 	add	r3,r3,r3
 1003dec:	10c5883a 	add	r2,r2,r3
 1003df0:	10800017 	ldw	r2,0(r2)
 1003df4:	d8800015 	stw	r2,0(sp)
 1003df8:	01ffffd4 	movui	r7,65535
 1003dfc:	000d883a 	mov	r6,zero
 1003e00:	01406044 	movi	r5,385
 1003e04:	1002b180 	call	1002b18 <lcdDispDecSmall>
 1003e08:	00002306 	br	1003e98 <button_table+0x3ec>
		}
		/*End*/
	}
	else if(touchResponse(Num_X+50, Num_X+100, Num_Y, Num_Y+50, page) == 0)
 1003e0c:	d0a00117 	ldw	r2,-32764(gp)
 1003e10:	10c00c84 	addi	r3,r2,50
 1003e14:	d0a00117 	ldw	r2,-32764(gp)
 1003e18:	11001904 	addi	r4,r2,100
 1003e1c:	d1600217 	ldw	r5,-32760(gp)
 1003e20:	d0a00217 	ldw	r2,-32760(gp)
 1003e24:	11800c84 	addi	r6,r2,50
 1003e28:	e0bfff17 	ldw	r2,-4(fp)
 1003e2c:	d8800015 	stw	r2,0(sp)
 1003e30:	300f883a 	mov	r7,r6
 1003e34:	280d883a 	mov	r6,r5
 1003e38:	200b883a 	mov	r5,r4
 1003e3c:	1809883a 	mov	r4,r3
 1003e40:	10038940 	call	1003894 <touchResponse>
 1003e44:	1000141e 	bne	r2,zero,1003e98 <button_table+0x3ec>
	{
		lcddrawsqur(Num_X+50, Num_X+100, Num_Y, Num_Y+50, BLACK, "  2");
 1003e48:	d0a00117 	ldw	r2,-32764(gp)
 1003e4c:	10800c84 	addi	r2,r2,50
 1003e50:	10ffffcc 	andi	r3,r2,65535
 1003e54:	d0a00117 	ldw	r2,-32764(gp)
 1003e58:	10801904 	addi	r2,r2,100
 1003e5c:	113fffcc 	andi	r4,r2,65535
 1003e60:	d0a00217 	ldw	r2,-32760(gp)
 1003e64:	117fffcc 	andi	r5,r2,65535
 1003e68:	d0a00217 	ldw	r2,-32760(gp)
 1003e6c:	10800c84 	addi	r2,r2,50
 1003e70:	11bfffcc 	andi	r6,r2,65535
 1003e74:	008040b4 	movhi	r2,258
 1003e78:	108e6b04 	addi	r2,r2,14764
 1003e7c:	d8800115 	stw	r2,4(sp)
 1003e80:	d8000015 	stw	zero,0(sp)
 1003e84:	300f883a 	mov	r7,r6
 1003e88:	280d883a 	mov	r6,r5
 1003e8c:	200b883a 	mov	r5,r4
 1003e90:	1809883a 	mov	r4,r3
 1003e94:	100352c0 	call	100352c <lcddrawsqur>
	}

	/****************** -3- *********************/
	if(touchResponse(Num_X+100, Num_X+150, Num_Y, Num_Y+50, page) == 1)
 1003e98:	d0a00117 	ldw	r2,-32764(gp)
 1003e9c:	10c01904 	addi	r3,r2,100
 1003ea0:	d0a00117 	ldw	r2,-32764(gp)
 1003ea4:	11002584 	addi	r4,r2,150
 1003ea8:	d1600217 	ldw	r5,-32760(gp)
 1003eac:	d0a00217 	ldw	r2,-32760(gp)
 1003eb0:	11800c84 	addi	r6,r2,50
 1003eb4:	e0bfff17 	ldw	r2,-4(fp)
 1003eb8:	d8800015 	stw	r2,0(sp)
 1003ebc:	300f883a 	mov	r7,r6
 1003ec0:	280d883a 	mov	r6,r5
 1003ec4:	200b883a 	mov	r5,r4
 1003ec8:	1809883a 	mov	r4,r3
 1003ecc:	10038940 	call	1003894 <touchResponse>
 1003ed0:	10800058 	cmpnei	r2,r2,1
 1003ed4:	1000491e 	bne	r2,zero,1003ffc <button_table+0x550>
	{
		/*Begin*/
		if((bit_pointer == 0) && (Range_w)){
 1003ed8:	d0a01817 	ldw	r2,-32672(gp)
 1003edc:	10000a1e 	bne	r2,zero,1003f08 <button_table+0x45c>
 1003ee0:	d0a01a17 	ldw	r2,-32664(gp)
 1003ee4:	10000826 	beq	r2,zero,1003f08 <button_table+0x45c>
			lcdRectClear(130, 425, 195, 437, BACKGROUND);
 1003ee8:	00bfffd4 	movui	r2,65535
 1003eec:	d8800015 	stw	r2,0(sp)
 1003ef0:	01c06d44 	movi	r7,437
 1003ef4:	018030c4 	movi	r6,195
 1003ef8:	01406a44 	movi	r5,425
 1003efc:	01002084 	movi	r4,130
 1003f00:	10019640 	call	1001964 <lcdRectClear>
 1003f04:	00000b06 	br	1003f34 <button_table+0x488>
		}
		else if((bit_pointer == 0) && (!Range_w)){
 1003f08:	d0a01817 	ldw	r2,-32672(gp)
 1003f0c:	1000091e 	bne	r2,zero,1003f34 <button_table+0x488>
 1003f10:	d0a01a17 	ldw	r2,-32664(gp)
 1003f14:	1000071e 	bne	r2,zero,1003f34 <button_table+0x488>
			lcdRectClear(130, 385, 195, 397, BACKGROUND);
 1003f18:	00bfffd4 	movui	r2,65535
 1003f1c:	d8800015 	stw	r2,0(sp)
 1003f20:	01c06344 	movi	r7,397
 1003f24:	018030c4 	movi	r6,195
 1003f28:	01406044 	movi	r5,385
 1003f2c:	01002084 	movi	r4,130
 1003f30:	10019640 	call	1001964 <lcdRectClear>
		}

		if(bit_pointer <= bit_length-1)
 1003f34:	d0a01817 	ldw	r2,-32672(gp)
 1003f38:	10800288 	cmpgei	r2,r2,10
 1003f3c:	1000521e 	bne	r2,zero,1004088 <button_table+0x5dc>
		{
			bit_pointer++;
 1003f40:	d0a01817 	ldw	r2,-32672(gp)
 1003f44:	10800044 	addi	r2,r2,1
 1003f48:	d0a01815 	stw	r2,-32672(gp)
			bit_array[bit_pointer]=3;
 1003f4c:	d0e01817 	ldw	r3,-32672(gp)
 1003f50:	008040b4 	movhi	r2,258
 1003f54:	10967404 	addi	r2,r2,22992
 1003f58:	18c7883a 	add	r3,r3,r3
 1003f5c:	18c7883a 	add	r3,r3,r3
 1003f60:	10c5883a 	add	r2,r2,r3
 1003f64:	00c000c4 	movi	r3,3
 1003f68:	10c00015 	stw	r3,0(r2)
			if(Range_w)
 1003f6c:	d0a01a17 	ldw	r2,-32664(gp)
 1003f70:	10001126 	beq	r2,zero,1003fb8 <button_table+0x50c>
				lcdDispDecSmall(130+(bit_pointer*9), 425, BLACK, WHITE, bit_array[bit_pointer]);
 1003f74:	d0a01817 	ldw	r2,-32672(gp)
 1003f78:	10800264 	muli	r2,r2,9
 1003f7c:	10802084 	addi	r2,r2,130
 1003f80:	113fffcc 	andi	r4,r2,65535
 1003f84:	d0e01817 	ldw	r3,-32672(gp)
 1003f88:	008040b4 	movhi	r2,258
 1003f8c:	10967404 	addi	r2,r2,22992
 1003f90:	18c7883a 	add	r3,r3,r3
 1003f94:	18c7883a 	add	r3,r3,r3
 1003f98:	10c5883a 	add	r2,r2,r3
 1003f9c:	10800017 	ldw	r2,0(r2)
 1003fa0:	d8800015 	stw	r2,0(sp)
 1003fa4:	01ffffd4 	movui	r7,65535
 1003fa8:	000d883a 	mov	r6,zero
 1003fac:	01406a44 	movi	r5,425
 1003fb0:	1002b180 	call	1002b18 <lcdDispDecSmall>
 1003fb4:	00003406 	br	1004088 <button_table+0x5dc>
			else
				lcdDispDecSmall(130+(bit_pointer*9), 385, BLACK, WHITE, bit_array[bit_pointer]);
 1003fb8:	d0a01817 	ldw	r2,-32672(gp)
 1003fbc:	10800264 	muli	r2,r2,9
 1003fc0:	10802084 	addi	r2,r2,130
 1003fc4:	113fffcc 	andi	r4,r2,65535
 1003fc8:	d0e01817 	ldw	r3,-32672(gp)
 1003fcc:	008040b4 	movhi	r2,258
 1003fd0:	10967404 	addi	r2,r2,22992
 1003fd4:	18c7883a 	add	r3,r3,r3
 1003fd8:	18c7883a 	add	r3,r3,r3
 1003fdc:	10c5883a 	add	r2,r2,r3
 1003fe0:	10800017 	ldw	r2,0(r2)
 1003fe4:	d8800015 	stw	r2,0(sp)
 1003fe8:	01ffffd4 	movui	r7,65535
 1003fec:	000d883a 	mov	r6,zero
 1003ff0:	01406044 	movi	r5,385
 1003ff4:	1002b180 	call	1002b18 <lcdDispDecSmall>
 1003ff8:	00002306 	br	1004088 <button_table+0x5dc>
		}
		/*End*/
	}
	else if(touchResponse(Num_X+100, Num_X+150, Num_Y, Num_Y+50, page) == 0)
 1003ffc:	d0a00117 	ldw	r2,-32764(gp)
 1004000:	10c01904 	addi	r3,r2,100
 1004004:	d0a00117 	ldw	r2,-32764(gp)
 1004008:	11002584 	addi	r4,r2,150
 100400c:	d1600217 	ldw	r5,-32760(gp)
 1004010:	d0a00217 	ldw	r2,-32760(gp)
 1004014:	11800c84 	addi	r6,r2,50
 1004018:	e0bfff17 	ldw	r2,-4(fp)
 100401c:	d8800015 	stw	r2,0(sp)
 1004020:	300f883a 	mov	r7,r6
 1004024:	280d883a 	mov	r6,r5
 1004028:	200b883a 	mov	r5,r4
 100402c:	1809883a 	mov	r4,r3
 1004030:	10038940 	call	1003894 <touchResponse>
 1004034:	1000141e 	bne	r2,zero,1004088 <button_table+0x5dc>
	{
		lcddrawsqur(Num_X+100,Num_X+150,Num_Y,Num_Y+50,BLACK, "  3");
 1004038:	d0a00117 	ldw	r2,-32764(gp)
 100403c:	10801904 	addi	r2,r2,100
 1004040:	10ffffcc 	andi	r3,r2,65535
 1004044:	d0a00117 	ldw	r2,-32764(gp)
 1004048:	10802584 	addi	r2,r2,150
 100404c:	113fffcc 	andi	r4,r2,65535
 1004050:	d0a00217 	ldw	r2,-32760(gp)
 1004054:	117fffcc 	andi	r5,r2,65535
 1004058:	d0a00217 	ldw	r2,-32760(gp)
 100405c:	10800c84 	addi	r2,r2,50
 1004060:	11bfffcc 	andi	r6,r2,65535
 1004064:	008040b4 	movhi	r2,258
 1004068:	108e6c04 	addi	r2,r2,14768
 100406c:	d8800115 	stw	r2,4(sp)
 1004070:	d8000015 	stw	zero,0(sp)
 1004074:	300f883a 	mov	r7,r6
 1004078:	280d883a 	mov	r6,r5
 100407c:	200b883a 	mov	r5,r4
 1004080:	1809883a 	mov	r4,r3
 1004084:	100352c0 	call	100352c <lcddrawsqur>
	}

	/****************** -4- *********************/
	if(touchResponse(Num_X, Num_X+50, Num_Y+50, Num_Y+100, page) == 1)
 1004088:	d0e00117 	ldw	r3,-32764(gp)
 100408c:	d0a00117 	ldw	r2,-32764(gp)
 1004090:	11000c84 	addi	r4,r2,50
 1004094:	d0a00217 	ldw	r2,-32760(gp)
 1004098:	11400c84 	addi	r5,r2,50
 100409c:	d0a00217 	ldw	r2,-32760(gp)
 10040a0:	11801904 	addi	r6,r2,100
 10040a4:	e0bfff17 	ldw	r2,-4(fp)
 10040a8:	d8800015 	stw	r2,0(sp)
 10040ac:	300f883a 	mov	r7,r6
 10040b0:	280d883a 	mov	r6,r5
 10040b4:	200b883a 	mov	r5,r4
 10040b8:	1809883a 	mov	r4,r3
 10040bc:	10038940 	call	1003894 <touchResponse>
 10040c0:	10800058 	cmpnei	r2,r2,1
 10040c4:	1000491e 	bne	r2,zero,10041ec <button_table+0x740>
	{
		/*Begin*/
		if((bit_pointer == 0) && (Range_w)){
 10040c8:	d0a01817 	ldw	r2,-32672(gp)
 10040cc:	10000a1e 	bne	r2,zero,10040f8 <button_table+0x64c>
 10040d0:	d0a01a17 	ldw	r2,-32664(gp)
 10040d4:	10000826 	beq	r2,zero,10040f8 <button_table+0x64c>
			lcdRectClear(130, 425, 195, 437, BACKGROUND);
 10040d8:	00bfffd4 	movui	r2,65535
 10040dc:	d8800015 	stw	r2,0(sp)
 10040e0:	01c06d44 	movi	r7,437
 10040e4:	018030c4 	movi	r6,195
 10040e8:	01406a44 	movi	r5,425
 10040ec:	01002084 	movi	r4,130
 10040f0:	10019640 	call	1001964 <lcdRectClear>
 10040f4:	00000b06 	br	1004124 <button_table+0x678>
		}
		else if((bit_pointer == 0) && (!Range_w)){
 10040f8:	d0a01817 	ldw	r2,-32672(gp)
 10040fc:	1000091e 	bne	r2,zero,1004124 <button_table+0x678>
 1004100:	d0a01a17 	ldw	r2,-32664(gp)
 1004104:	1000071e 	bne	r2,zero,1004124 <button_table+0x678>
			lcdRectClear(130, 385, 195, 397, BACKGROUND);
 1004108:	00bfffd4 	movui	r2,65535
 100410c:	d8800015 	stw	r2,0(sp)
 1004110:	01c06344 	movi	r7,397
 1004114:	018030c4 	movi	r6,195
 1004118:	01406044 	movi	r5,385
 100411c:	01002084 	movi	r4,130
 1004120:	10019640 	call	1001964 <lcdRectClear>
		}

		if(bit_pointer <= bit_length-1)
 1004124:	d0a01817 	ldw	r2,-32672(gp)
 1004128:	10800288 	cmpgei	r2,r2,10
 100412c:	1000521e 	bne	r2,zero,1004278 <button_table+0x7cc>
		{
			bit_pointer++;
 1004130:	d0a01817 	ldw	r2,-32672(gp)
 1004134:	10800044 	addi	r2,r2,1
 1004138:	d0a01815 	stw	r2,-32672(gp)
			bit_array[bit_pointer]=4;
 100413c:	d0e01817 	ldw	r3,-32672(gp)
 1004140:	008040b4 	movhi	r2,258
 1004144:	10967404 	addi	r2,r2,22992
 1004148:	18c7883a 	add	r3,r3,r3
 100414c:	18c7883a 	add	r3,r3,r3
 1004150:	10c5883a 	add	r2,r2,r3
 1004154:	00c00104 	movi	r3,4
 1004158:	10c00015 	stw	r3,0(r2)
			if(Range_w)
 100415c:	d0a01a17 	ldw	r2,-32664(gp)
 1004160:	10001126 	beq	r2,zero,10041a8 <button_table+0x6fc>
				lcdDispDecSmall(130+(bit_pointer*9), 425, BLACK, WHITE, bit_array[bit_pointer]);
 1004164:	d0a01817 	ldw	r2,-32672(gp)
 1004168:	10800264 	muli	r2,r2,9
 100416c:	10802084 	addi	r2,r2,130
 1004170:	113fffcc 	andi	r4,r2,65535
 1004174:	d0e01817 	ldw	r3,-32672(gp)
 1004178:	008040b4 	movhi	r2,258
 100417c:	10967404 	addi	r2,r2,22992
 1004180:	18c7883a 	add	r3,r3,r3
 1004184:	18c7883a 	add	r3,r3,r3
 1004188:	10c5883a 	add	r2,r2,r3
 100418c:	10800017 	ldw	r2,0(r2)
 1004190:	d8800015 	stw	r2,0(sp)
 1004194:	01ffffd4 	movui	r7,65535
 1004198:	000d883a 	mov	r6,zero
 100419c:	01406a44 	movi	r5,425
 10041a0:	1002b180 	call	1002b18 <lcdDispDecSmall>
 10041a4:	00003406 	br	1004278 <button_table+0x7cc>
			else
				lcdDispDecSmall(130+(bit_pointer*9), 385, BLACK, WHITE, bit_array[bit_pointer]);
 10041a8:	d0a01817 	ldw	r2,-32672(gp)
 10041ac:	10800264 	muli	r2,r2,9
 10041b0:	10802084 	addi	r2,r2,130
 10041b4:	113fffcc 	andi	r4,r2,65535
 10041b8:	d0e01817 	ldw	r3,-32672(gp)
 10041bc:	008040b4 	movhi	r2,258
 10041c0:	10967404 	addi	r2,r2,22992
 10041c4:	18c7883a 	add	r3,r3,r3
 10041c8:	18c7883a 	add	r3,r3,r3
 10041cc:	10c5883a 	add	r2,r2,r3
 10041d0:	10800017 	ldw	r2,0(r2)
 10041d4:	d8800015 	stw	r2,0(sp)
 10041d8:	01ffffd4 	movui	r7,65535
 10041dc:	000d883a 	mov	r6,zero
 10041e0:	01406044 	movi	r5,385
 10041e4:	1002b180 	call	1002b18 <lcdDispDecSmall>
 10041e8:	00002306 	br	1004278 <button_table+0x7cc>
		}
		/*End*/
	}
	else if(touchResponse(Num_X, Num_X+50, Num_Y+50, Num_Y+100, page) == 0)
 10041ec:	d0e00117 	ldw	r3,-32764(gp)
 10041f0:	d0a00117 	ldw	r2,-32764(gp)
 10041f4:	11000c84 	addi	r4,r2,50
 10041f8:	d0a00217 	ldw	r2,-32760(gp)
 10041fc:	11400c84 	addi	r5,r2,50
 1004200:	d0a00217 	ldw	r2,-32760(gp)
 1004204:	11801904 	addi	r6,r2,100
 1004208:	e0bfff17 	ldw	r2,-4(fp)
 100420c:	d8800015 	stw	r2,0(sp)
 1004210:	300f883a 	mov	r7,r6
 1004214:	280d883a 	mov	r6,r5
 1004218:	200b883a 	mov	r5,r4
 100421c:	1809883a 	mov	r4,r3
 1004220:	10038940 	call	1003894 <touchResponse>
 1004224:	1000141e 	bne	r2,zero,1004278 <button_table+0x7cc>
	{
		lcddrawsqur(Num_X,Num_X+50,Num_Y+50,Num_Y+100,BLACK, "  4");
 1004228:	d0a00117 	ldw	r2,-32764(gp)
 100422c:	10ffffcc 	andi	r3,r2,65535
 1004230:	d0a00117 	ldw	r2,-32764(gp)
 1004234:	10800c84 	addi	r2,r2,50
 1004238:	113fffcc 	andi	r4,r2,65535
 100423c:	d0a00217 	ldw	r2,-32760(gp)
 1004240:	10800c84 	addi	r2,r2,50
 1004244:	117fffcc 	andi	r5,r2,65535
 1004248:	d0a00217 	ldw	r2,-32760(gp)
 100424c:	10801904 	addi	r2,r2,100
 1004250:	11bfffcc 	andi	r6,r2,65535
 1004254:	008040b4 	movhi	r2,258
 1004258:	108e6d04 	addi	r2,r2,14772
 100425c:	d8800115 	stw	r2,4(sp)
 1004260:	d8000015 	stw	zero,0(sp)
 1004264:	300f883a 	mov	r7,r6
 1004268:	280d883a 	mov	r6,r5
 100426c:	200b883a 	mov	r5,r4
 1004270:	1809883a 	mov	r4,r3
 1004274:	100352c0 	call	100352c <lcddrawsqur>
	}

	/****************** -5- *********************/
	if(touchResponse(Num_X+50, Num_X+100, Num_Y+50, Num_Y+100, page) == 1)
 1004278:	d0a00117 	ldw	r2,-32764(gp)
 100427c:	10c00c84 	addi	r3,r2,50
 1004280:	d0a00117 	ldw	r2,-32764(gp)
 1004284:	11001904 	addi	r4,r2,100
 1004288:	d0a00217 	ldw	r2,-32760(gp)
 100428c:	11400c84 	addi	r5,r2,50
 1004290:	d0a00217 	ldw	r2,-32760(gp)
 1004294:	11801904 	addi	r6,r2,100
 1004298:	e0bfff17 	ldw	r2,-4(fp)
 100429c:	d8800015 	stw	r2,0(sp)
 10042a0:	300f883a 	mov	r7,r6
 10042a4:	280d883a 	mov	r6,r5
 10042a8:	200b883a 	mov	r5,r4
 10042ac:	1809883a 	mov	r4,r3
 10042b0:	10038940 	call	1003894 <touchResponse>
 10042b4:	10800058 	cmpnei	r2,r2,1
 10042b8:	1000491e 	bne	r2,zero,10043e0 <button_table+0x934>
	{
		/*Begin*/
		if((bit_pointer == 0) && (Range_w)){
 10042bc:	d0a01817 	ldw	r2,-32672(gp)
 10042c0:	10000a1e 	bne	r2,zero,10042ec <button_table+0x840>
 10042c4:	d0a01a17 	ldw	r2,-32664(gp)
 10042c8:	10000826 	beq	r2,zero,10042ec <button_table+0x840>
			lcdRectClear(130, 425, 195, 437, BACKGROUND);
 10042cc:	00bfffd4 	movui	r2,65535
 10042d0:	d8800015 	stw	r2,0(sp)
 10042d4:	01c06d44 	movi	r7,437
 10042d8:	018030c4 	movi	r6,195
 10042dc:	01406a44 	movi	r5,425
 10042e0:	01002084 	movi	r4,130
 10042e4:	10019640 	call	1001964 <lcdRectClear>
 10042e8:	00000b06 	br	1004318 <button_table+0x86c>
		}
		else if((bit_pointer == 0) && (!Range_w)){
 10042ec:	d0a01817 	ldw	r2,-32672(gp)
 10042f0:	1000091e 	bne	r2,zero,1004318 <button_table+0x86c>
 10042f4:	d0a01a17 	ldw	r2,-32664(gp)
 10042f8:	1000071e 	bne	r2,zero,1004318 <button_table+0x86c>
			lcdRectClear(130, 385, 195, 397, BACKGROUND);
 10042fc:	00bfffd4 	movui	r2,65535
 1004300:	d8800015 	stw	r2,0(sp)
 1004304:	01c06344 	movi	r7,397
 1004308:	018030c4 	movi	r6,195
 100430c:	01406044 	movi	r5,385
 1004310:	01002084 	movi	r4,130
 1004314:	10019640 	call	1001964 <lcdRectClear>
		}

		if(bit_pointer <= bit_length-1)
 1004318:	d0a01817 	ldw	r2,-32672(gp)
 100431c:	10800288 	cmpgei	r2,r2,10
 1004320:	1000541e 	bne	r2,zero,1004474 <button_table+0x9c8>
		{
			bit_pointer++;
 1004324:	d0a01817 	ldw	r2,-32672(gp)
 1004328:	10800044 	addi	r2,r2,1
 100432c:	d0a01815 	stw	r2,-32672(gp)
			bit_array[bit_pointer]=5;
 1004330:	d0e01817 	ldw	r3,-32672(gp)
 1004334:	008040b4 	movhi	r2,258
 1004338:	10967404 	addi	r2,r2,22992
 100433c:	18c7883a 	add	r3,r3,r3
 1004340:	18c7883a 	add	r3,r3,r3
 1004344:	10c5883a 	add	r2,r2,r3
 1004348:	00c00144 	movi	r3,5
 100434c:	10c00015 	stw	r3,0(r2)
			if(Range_w)
 1004350:	d0a01a17 	ldw	r2,-32664(gp)
 1004354:	10001126 	beq	r2,zero,100439c <button_table+0x8f0>
				lcdDispDecSmall(130+(bit_pointer*9), 425, BLACK, WHITE, bit_array[bit_pointer]);
 1004358:	d0a01817 	ldw	r2,-32672(gp)
 100435c:	10800264 	muli	r2,r2,9
 1004360:	10802084 	addi	r2,r2,130
 1004364:	113fffcc 	andi	r4,r2,65535
 1004368:	d0e01817 	ldw	r3,-32672(gp)
 100436c:	008040b4 	movhi	r2,258
 1004370:	10967404 	addi	r2,r2,22992
 1004374:	18c7883a 	add	r3,r3,r3
 1004378:	18c7883a 	add	r3,r3,r3
 100437c:	10c5883a 	add	r2,r2,r3
 1004380:	10800017 	ldw	r2,0(r2)
 1004384:	d8800015 	stw	r2,0(sp)
 1004388:	01ffffd4 	movui	r7,65535
 100438c:	000d883a 	mov	r6,zero
 1004390:	01406a44 	movi	r5,425
 1004394:	1002b180 	call	1002b18 <lcdDispDecSmall>
 1004398:	00003606 	br	1004474 <button_table+0x9c8>
			else
				lcdDispDecSmall(130+(bit_pointer*9), 385, BLACK, WHITE, bit_array[bit_pointer]);
 100439c:	d0a01817 	ldw	r2,-32672(gp)
 10043a0:	10800264 	muli	r2,r2,9
 10043a4:	10802084 	addi	r2,r2,130
 10043a8:	113fffcc 	andi	r4,r2,65535
 10043ac:	d0e01817 	ldw	r3,-32672(gp)
 10043b0:	008040b4 	movhi	r2,258
 10043b4:	10967404 	addi	r2,r2,22992
 10043b8:	18c7883a 	add	r3,r3,r3
 10043bc:	18c7883a 	add	r3,r3,r3
 10043c0:	10c5883a 	add	r2,r2,r3
 10043c4:	10800017 	ldw	r2,0(r2)
 10043c8:	d8800015 	stw	r2,0(sp)
 10043cc:	01ffffd4 	movui	r7,65535
 10043d0:	000d883a 	mov	r6,zero
 10043d4:	01406044 	movi	r5,385
 10043d8:	1002b180 	call	1002b18 <lcdDispDecSmall>
 10043dc:	00002506 	br	1004474 <button_table+0x9c8>
		}
		/*End*/
	}
	else if(touchResponse(Num_X+50, Num_X+100, Num_Y+50, Num_Y+100, page) == 0)
 10043e0:	d0a00117 	ldw	r2,-32764(gp)
 10043e4:	10c00c84 	addi	r3,r2,50
 10043e8:	d0a00117 	ldw	r2,-32764(gp)
 10043ec:	11001904 	addi	r4,r2,100
 10043f0:	d0a00217 	ldw	r2,-32760(gp)
 10043f4:	11400c84 	addi	r5,r2,50
 10043f8:	d0a00217 	ldw	r2,-32760(gp)
 10043fc:	11801904 	addi	r6,r2,100
 1004400:	e0bfff17 	ldw	r2,-4(fp)
 1004404:	d8800015 	stw	r2,0(sp)
 1004408:	300f883a 	mov	r7,r6
 100440c:	280d883a 	mov	r6,r5
 1004410:	200b883a 	mov	r5,r4
 1004414:	1809883a 	mov	r4,r3
 1004418:	10038940 	call	1003894 <touchResponse>
 100441c:	1000151e 	bne	r2,zero,1004474 <button_table+0x9c8>
	{
		lcddrawsqur(Num_X+50, Num_X+100, Num_Y+50, Num_Y+100, BLACK, "  5");
 1004420:	d0a00117 	ldw	r2,-32764(gp)
 1004424:	10800c84 	addi	r2,r2,50
 1004428:	10ffffcc 	andi	r3,r2,65535
 100442c:	d0a00117 	ldw	r2,-32764(gp)
 1004430:	10801904 	addi	r2,r2,100
 1004434:	113fffcc 	andi	r4,r2,65535
 1004438:	d0a00217 	ldw	r2,-32760(gp)
 100443c:	10800c84 	addi	r2,r2,50
 1004440:	117fffcc 	andi	r5,r2,65535
 1004444:	d0a00217 	ldw	r2,-32760(gp)
 1004448:	10801904 	addi	r2,r2,100
 100444c:	11bfffcc 	andi	r6,r2,65535
 1004450:	008040b4 	movhi	r2,258
 1004454:	108e6e04 	addi	r2,r2,14776
 1004458:	d8800115 	stw	r2,4(sp)
 100445c:	d8000015 	stw	zero,0(sp)
 1004460:	300f883a 	mov	r7,r6
 1004464:	280d883a 	mov	r6,r5
 1004468:	200b883a 	mov	r5,r4
 100446c:	1809883a 	mov	r4,r3
 1004470:	100352c0 	call	100352c <lcddrawsqur>
	}

	/****************** -6- *********************/
	if(touchResponse(Num_X+100, Num_X+150, Num_Y+50, Num_Y+100, page) == 1)
 1004474:	d0a00117 	ldw	r2,-32764(gp)
 1004478:	10c01904 	addi	r3,r2,100
 100447c:	d0a00117 	ldw	r2,-32764(gp)
 1004480:	11002584 	addi	r4,r2,150
 1004484:	d0a00217 	ldw	r2,-32760(gp)
 1004488:	11400c84 	addi	r5,r2,50
 100448c:	d0a00217 	ldw	r2,-32760(gp)
 1004490:	11801904 	addi	r6,r2,100
 1004494:	e0bfff17 	ldw	r2,-4(fp)
 1004498:	d8800015 	stw	r2,0(sp)
 100449c:	300f883a 	mov	r7,r6
 10044a0:	280d883a 	mov	r6,r5
 10044a4:	200b883a 	mov	r5,r4
 10044a8:	1809883a 	mov	r4,r3
 10044ac:	10038940 	call	1003894 <touchResponse>
 10044b0:	10800058 	cmpnei	r2,r2,1
 10044b4:	1000491e 	bne	r2,zero,10045dc <button_table+0xb30>
	{
		/*Begin*/
		if((bit_pointer == 0) && (Range_w)){
 10044b8:	d0a01817 	ldw	r2,-32672(gp)
 10044bc:	10000a1e 	bne	r2,zero,10044e8 <button_table+0xa3c>
 10044c0:	d0a01a17 	ldw	r2,-32664(gp)
 10044c4:	10000826 	beq	r2,zero,10044e8 <button_table+0xa3c>
			lcdRectClear(130, 425, 195, 437, BACKGROUND);
 10044c8:	00bfffd4 	movui	r2,65535
 10044cc:	d8800015 	stw	r2,0(sp)
 10044d0:	01c06d44 	movi	r7,437
 10044d4:	018030c4 	movi	r6,195
 10044d8:	01406a44 	movi	r5,425
 10044dc:	01002084 	movi	r4,130
 10044e0:	10019640 	call	1001964 <lcdRectClear>
 10044e4:	00000b06 	br	1004514 <button_table+0xa68>
		}
		else if((bit_pointer == 0) && (!Range_w)){
 10044e8:	d0a01817 	ldw	r2,-32672(gp)
 10044ec:	1000091e 	bne	r2,zero,1004514 <button_table+0xa68>
 10044f0:	d0a01a17 	ldw	r2,-32664(gp)
 10044f4:	1000071e 	bne	r2,zero,1004514 <button_table+0xa68>
			lcdRectClear(130, 385, 195, 397, BACKGROUND);
 10044f8:	00bfffd4 	movui	r2,65535
 10044fc:	d8800015 	stw	r2,0(sp)
 1004500:	01c06344 	movi	r7,397
 1004504:	018030c4 	movi	r6,195
 1004508:	01406044 	movi	r5,385
 100450c:	01002084 	movi	r4,130
 1004510:	10019640 	call	1001964 <lcdRectClear>
		}

		if(bit_pointer <= bit_length-1)
 1004514:	d0a01817 	ldw	r2,-32672(gp)
 1004518:	10800288 	cmpgei	r2,r2,10
 100451c:	1000541e 	bne	r2,zero,1004670 <button_table+0xbc4>
		{
			bit_pointer++;
 1004520:	d0a01817 	ldw	r2,-32672(gp)
 1004524:	10800044 	addi	r2,r2,1
 1004528:	d0a01815 	stw	r2,-32672(gp)
			bit_array[bit_pointer]=6;
 100452c:	d0e01817 	ldw	r3,-32672(gp)
 1004530:	008040b4 	movhi	r2,258
 1004534:	10967404 	addi	r2,r2,22992
 1004538:	18c7883a 	add	r3,r3,r3
 100453c:	18c7883a 	add	r3,r3,r3
 1004540:	10c5883a 	add	r2,r2,r3
 1004544:	00c00184 	movi	r3,6
 1004548:	10c00015 	stw	r3,0(r2)
			if(Range_w)
 100454c:	d0a01a17 	ldw	r2,-32664(gp)
 1004550:	10001126 	beq	r2,zero,1004598 <button_table+0xaec>
				lcdDispDecSmall(130+(bit_pointer*9), 425, BLACK, WHITE, bit_array[bit_pointer]);
 1004554:	d0a01817 	ldw	r2,-32672(gp)
 1004558:	10800264 	muli	r2,r2,9
 100455c:	10802084 	addi	r2,r2,130
 1004560:	113fffcc 	andi	r4,r2,65535
 1004564:	d0e01817 	ldw	r3,-32672(gp)
 1004568:	008040b4 	movhi	r2,258
 100456c:	10967404 	addi	r2,r2,22992
 1004570:	18c7883a 	add	r3,r3,r3
 1004574:	18c7883a 	add	r3,r3,r3
 1004578:	10c5883a 	add	r2,r2,r3
 100457c:	10800017 	ldw	r2,0(r2)
 1004580:	d8800015 	stw	r2,0(sp)
 1004584:	01ffffd4 	movui	r7,65535
 1004588:	000d883a 	mov	r6,zero
 100458c:	01406a44 	movi	r5,425
 1004590:	1002b180 	call	1002b18 <lcdDispDecSmall>
 1004594:	00003606 	br	1004670 <button_table+0xbc4>
			else
				lcdDispDecSmall(130+(bit_pointer*9), 385, BLACK, WHITE, bit_array[bit_pointer]);
 1004598:	d0a01817 	ldw	r2,-32672(gp)
 100459c:	10800264 	muli	r2,r2,9
 10045a0:	10802084 	addi	r2,r2,130
 10045a4:	113fffcc 	andi	r4,r2,65535
 10045a8:	d0e01817 	ldw	r3,-32672(gp)
 10045ac:	008040b4 	movhi	r2,258
 10045b0:	10967404 	addi	r2,r2,22992
 10045b4:	18c7883a 	add	r3,r3,r3
 10045b8:	18c7883a 	add	r3,r3,r3
 10045bc:	10c5883a 	add	r2,r2,r3
 10045c0:	10800017 	ldw	r2,0(r2)
 10045c4:	d8800015 	stw	r2,0(sp)
 10045c8:	01ffffd4 	movui	r7,65535
 10045cc:	000d883a 	mov	r6,zero
 10045d0:	01406044 	movi	r5,385
 10045d4:	1002b180 	call	1002b18 <lcdDispDecSmall>
 10045d8:	00002506 	br	1004670 <button_table+0xbc4>
		}
		/*End*/
	}
	else if(touchResponse(Num_X+100, Num_X+150, Num_Y+50, Num_Y+100, page) == 0)
 10045dc:	d0a00117 	ldw	r2,-32764(gp)
 10045e0:	10c01904 	addi	r3,r2,100
 10045e4:	d0a00117 	ldw	r2,-32764(gp)
 10045e8:	11002584 	addi	r4,r2,150
 10045ec:	d0a00217 	ldw	r2,-32760(gp)
 10045f0:	11400c84 	addi	r5,r2,50
 10045f4:	d0a00217 	ldw	r2,-32760(gp)
 10045f8:	11801904 	addi	r6,r2,100
 10045fc:	e0bfff17 	ldw	r2,-4(fp)
 1004600:	d8800015 	stw	r2,0(sp)
 1004604:	300f883a 	mov	r7,r6
 1004608:	280d883a 	mov	r6,r5
 100460c:	200b883a 	mov	r5,r4
 1004610:	1809883a 	mov	r4,r3
 1004614:	10038940 	call	1003894 <touchResponse>
 1004618:	1000151e 	bne	r2,zero,1004670 <button_table+0xbc4>
	{
		lcddrawsqur(Num_X+100, Num_X+150, Num_Y+50, Num_Y+100, BLACK, "  6");
 100461c:	d0a00117 	ldw	r2,-32764(gp)
 1004620:	10801904 	addi	r2,r2,100
 1004624:	10ffffcc 	andi	r3,r2,65535
 1004628:	d0a00117 	ldw	r2,-32764(gp)
 100462c:	10802584 	addi	r2,r2,150
 1004630:	113fffcc 	andi	r4,r2,65535
 1004634:	d0a00217 	ldw	r2,-32760(gp)
 1004638:	10800c84 	addi	r2,r2,50
 100463c:	117fffcc 	andi	r5,r2,65535
 1004640:	d0a00217 	ldw	r2,-32760(gp)
 1004644:	10801904 	addi	r2,r2,100
 1004648:	11bfffcc 	andi	r6,r2,65535
 100464c:	008040b4 	movhi	r2,258
 1004650:	108e6f04 	addi	r2,r2,14780
 1004654:	d8800115 	stw	r2,4(sp)
 1004658:	d8000015 	stw	zero,0(sp)
 100465c:	300f883a 	mov	r7,r6
 1004660:	280d883a 	mov	r6,r5
 1004664:	200b883a 	mov	r5,r4
 1004668:	1809883a 	mov	r4,r3
 100466c:	100352c0 	call	100352c <lcddrawsqur>
	}

	/****************** -7- *********************/
	if(touchResponse(Num_X, Num_X+50, Num_Y+100, Num_Y+150, page) == 1)
 1004670:	d0e00117 	ldw	r3,-32764(gp)
 1004674:	d0a00117 	ldw	r2,-32764(gp)
 1004678:	11000c84 	addi	r4,r2,50
 100467c:	d0a00217 	ldw	r2,-32760(gp)
 1004680:	11401904 	addi	r5,r2,100
 1004684:	d0a00217 	ldw	r2,-32760(gp)
 1004688:	11802584 	addi	r6,r2,150
 100468c:	e0bfff17 	ldw	r2,-4(fp)
 1004690:	d8800015 	stw	r2,0(sp)
 1004694:	300f883a 	mov	r7,r6
 1004698:	280d883a 	mov	r6,r5
 100469c:	200b883a 	mov	r5,r4
 10046a0:	1809883a 	mov	r4,r3
 10046a4:	10038940 	call	1003894 <touchResponse>
 10046a8:	10800058 	cmpnei	r2,r2,1
 10046ac:	1000491e 	bne	r2,zero,10047d4 <button_table+0xd28>
	{
		/*Begin*/
		if((bit_pointer == 0) && (Range_w)){
 10046b0:	d0a01817 	ldw	r2,-32672(gp)
 10046b4:	10000a1e 	bne	r2,zero,10046e0 <button_table+0xc34>
 10046b8:	d0a01a17 	ldw	r2,-32664(gp)
 10046bc:	10000826 	beq	r2,zero,10046e0 <button_table+0xc34>
			lcdRectClear(130, 425, 195, 437, BACKGROUND);
 10046c0:	00bfffd4 	movui	r2,65535
 10046c4:	d8800015 	stw	r2,0(sp)
 10046c8:	01c06d44 	movi	r7,437
 10046cc:	018030c4 	movi	r6,195
 10046d0:	01406a44 	movi	r5,425
 10046d4:	01002084 	movi	r4,130
 10046d8:	10019640 	call	1001964 <lcdRectClear>
 10046dc:	00000b06 	br	100470c <button_table+0xc60>
		}
		else if((bit_pointer == 0) && (!Range_w)){
 10046e0:	d0a01817 	ldw	r2,-32672(gp)
 10046e4:	1000091e 	bne	r2,zero,100470c <button_table+0xc60>
 10046e8:	d0a01a17 	ldw	r2,-32664(gp)
 10046ec:	1000071e 	bne	r2,zero,100470c <button_table+0xc60>
			lcdRectClear(130, 385, 195, 397, BACKGROUND);
 10046f0:	00bfffd4 	movui	r2,65535
 10046f4:	d8800015 	stw	r2,0(sp)
 10046f8:	01c06344 	movi	r7,397
 10046fc:	018030c4 	movi	r6,195
 1004700:	01406044 	movi	r5,385
 1004704:	01002084 	movi	r4,130
 1004708:	10019640 	call	1001964 <lcdRectClear>
		}

		if(bit_pointer <= bit_length-1)
 100470c:	d0a01817 	ldw	r2,-32672(gp)
 1004710:	10800288 	cmpgei	r2,r2,10
 1004714:	1000521e 	bne	r2,zero,1004860 <button_table+0xdb4>
		{
			bit_pointer++;
 1004718:	d0a01817 	ldw	r2,-32672(gp)
 100471c:	10800044 	addi	r2,r2,1
 1004720:	d0a01815 	stw	r2,-32672(gp)
			bit_array[bit_pointer]=7;
 1004724:	d0e01817 	ldw	r3,-32672(gp)
 1004728:	008040b4 	movhi	r2,258
 100472c:	10967404 	addi	r2,r2,22992
 1004730:	18c7883a 	add	r3,r3,r3
 1004734:	18c7883a 	add	r3,r3,r3
 1004738:	10c5883a 	add	r2,r2,r3
 100473c:	00c001c4 	movi	r3,7
 1004740:	10c00015 	stw	r3,0(r2)
			if(Range_w)
 1004744:	d0a01a17 	ldw	r2,-32664(gp)
 1004748:	10001126 	beq	r2,zero,1004790 <button_table+0xce4>
				lcdDispDecSmall(130+(bit_pointer*9), 425, BLACK, WHITE, bit_array[bit_pointer]);
 100474c:	d0a01817 	ldw	r2,-32672(gp)
 1004750:	10800264 	muli	r2,r2,9
 1004754:	10802084 	addi	r2,r2,130
 1004758:	113fffcc 	andi	r4,r2,65535
 100475c:	d0e01817 	ldw	r3,-32672(gp)
 1004760:	008040b4 	movhi	r2,258
 1004764:	10967404 	addi	r2,r2,22992
 1004768:	18c7883a 	add	r3,r3,r3
 100476c:	18c7883a 	add	r3,r3,r3
 1004770:	10c5883a 	add	r2,r2,r3
 1004774:	10800017 	ldw	r2,0(r2)
 1004778:	d8800015 	stw	r2,0(sp)
 100477c:	01ffffd4 	movui	r7,65535
 1004780:	000d883a 	mov	r6,zero
 1004784:	01406a44 	movi	r5,425
 1004788:	1002b180 	call	1002b18 <lcdDispDecSmall>
 100478c:	00003406 	br	1004860 <button_table+0xdb4>
			else
				lcdDispDecSmall(130+(bit_pointer*9), 385, BLACK, WHITE, bit_array[bit_pointer]);
 1004790:	d0a01817 	ldw	r2,-32672(gp)
 1004794:	10800264 	muli	r2,r2,9
 1004798:	10802084 	addi	r2,r2,130
 100479c:	113fffcc 	andi	r4,r2,65535
 10047a0:	d0e01817 	ldw	r3,-32672(gp)
 10047a4:	008040b4 	movhi	r2,258
 10047a8:	10967404 	addi	r2,r2,22992
 10047ac:	18c7883a 	add	r3,r3,r3
 10047b0:	18c7883a 	add	r3,r3,r3
 10047b4:	10c5883a 	add	r2,r2,r3
 10047b8:	10800017 	ldw	r2,0(r2)
 10047bc:	d8800015 	stw	r2,0(sp)
 10047c0:	01ffffd4 	movui	r7,65535
 10047c4:	000d883a 	mov	r6,zero
 10047c8:	01406044 	movi	r5,385
 10047cc:	1002b180 	call	1002b18 <lcdDispDecSmall>
 10047d0:	00002306 	br	1004860 <button_table+0xdb4>
		}
		/*End*/
	}
	else if(touchResponse(Num_X, Num_X+50, Num_Y+100, Num_Y+150, page) == 0)
 10047d4:	d0e00117 	ldw	r3,-32764(gp)
 10047d8:	d0a00117 	ldw	r2,-32764(gp)
 10047dc:	11000c84 	addi	r4,r2,50
 10047e0:	d0a00217 	ldw	r2,-32760(gp)
 10047e4:	11401904 	addi	r5,r2,100
 10047e8:	d0a00217 	ldw	r2,-32760(gp)
 10047ec:	11802584 	addi	r6,r2,150
 10047f0:	e0bfff17 	ldw	r2,-4(fp)
 10047f4:	d8800015 	stw	r2,0(sp)
 10047f8:	300f883a 	mov	r7,r6
 10047fc:	280d883a 	mov	r6,r5
 1004800:	200b883a 	mov	r5,r4
 1004804:	1809883a 	mov	r4,r3
 1004808:	10038940 	call	1003894 <touchResponse>
 100480c:	1000141e 	bne	r2,zero,1004860 <button_table+0xdb4>
	{
		lcddrawsqur(Num_X, Num_X+50, Num_Y+100, Num_Y+150, BLACK, "  7");
 1004810:	d0a00117 	ldw	r2,-32764(gp)
 1004814:	10ffffcc 	andi	r3,r2,65535
 1004818:	d0a00117 	ldw	r2,-32764(gp)
 100481c:	10800c84 	addi	r2,r2,50
 1004820:	113fffcc 	andi	r4,r2,65535
 1004824:	d0a00217 	ldw	r2,-32760(gp)
 1004828:	10801904 	addi	r2,r2,100
 100482c:	117fffcc 	andi	r5,r2,65535
 1004830:	d0a00217 	ldw	r2,-32760(gp)
 1004834:	10802584 	addi	r2,r2,150
 1004838:	11bfffcc 	andi	r6,r2,65535
 100483c:	008040b4 	movhi	r2,258
 1004840:	108e7004 	addi	r2,r2,14784
 1004844:	d8800115 	stw	r2,4(sp)
 1004848:	d8000015 	stw	zero,0(sp)
 100484c:	300f883a 	mov	r7,r6
 1004850:	280d883a 	mov	r6,r5
 1004854:	200b883a 	mov	r5,r4
 1004858:	1809883a 	mov	r4,r3
 100485c:	100352c0 	call	100352c <lcddrawsqur>
	}

	/****************** -8- *********************/
	if(touchResponse(Num_X+50, Num_X+100, Num_Y+100, Num_Y+150, page) == 1)
 1004860:	d0a00117 	ldw	r2,-32764(gp)
 1004864:	10c00c84 	addi	r3,r2,50
 1004868:	d0a00117 	ldw	r2,-32764(gp)
 100486c:	11001904 	addi	r4,r2,100
 1004870:	d0a00217 	ldw	r2,-32760(gp)
 1004874:	11401904 	addi	r5,r2,100
 1004878:	d0a00217 	ldw	r2,-32760(gp)
 100487c:	11802584 	addi	r6,r2,150
 1004880:	e0bfff17 	ldw	r2,-4(fp)
 1004884:	d8800015 	stw	r2,0(sp)
 1004888:	300f883a 	mov	r7,r6
 100488c:	280d883a 	mov	r6,r5
 1004890:	200b883a 	mov	r5,r4
 1004894:	1809883a 	mov	r4,r3
 1004898:	10038940 	call	1003894 <touchResponse>
 100489c:	10800058 	cmpnei	r2,r2,1
 10048a0:	1000491e 	bne	r2,zero,10049c8 <button_table+0xf1c>
	{
		/*Begin*/
		if((bit_pointer == 0) && (Range_w)){
 10048a4:	d0a01817 	ldw	r2,-32672(gp)
 10048a8:	10000a1e 	bne	r2,zero,10048d4 <button_table+0xe28>
 10048ac:	d0a01a17 	ldw	r2,-32664(gp)
 10048b0:	10000826 	beq	r2,zero,10048d4 <button_table+0xe28>
			lcdRectClear(130, 425, 195, 437, BACKGROUND);
 10048b4:	00bfffd4 	movui	r2,65535
 10048b8:	d8800015 	stw	r2,0(sp)
 10048bc:	01c06d44 	movi	r7,437
 10048c0:	018030c4 	movi	r6,195
 10048c4:	01406a44 	movi	r5,425
 10048c8:	01002084 	movi	r4,130
 10048cc:	10019640 	call	1001964 <lcdRectClear>
 10048d0:	00000b06 	br	1004900 <button_table+0xe54>
		}
		else if((bit_pointer == 0) && (!Range_w)){
 10048d4:	d0a01817 	ldw	r2,-32672(gp)
 10048d8:	1000091e 	bne	r2,zero,1004900 <button_table+0xe54>
 10048dc:	d0a01a17 	ldw	r2,-32664(gp)
 10048e0:	1000071e 	bne	r2,zero,1004900 <button_table+0xe54>
			lcdRectClear(130, 385, 195, 397, BACKGROUND);
 10048e4:	00bfffd4 	movui	r2,65535
 10048e8:	d8800015 	stw	r2,0(sp)
 10048ec:	01c06344 	movi	r7,397
 10048f0:	018030c4 	movi	r6,195
 10048f4:	01406044 	movi	r5,385
 10048f8:	01002084 	movi	r4,130
 10048fc:	10019640 	call	1001964 <lcdRectClear>
		}

		if(bit_pointer <= bit_length-1)
 1004900:	d0a01817 	ldw	r2,-32672(gp)
 1004904:	10800288 	cmpgei	r2,r2,10
 1004908:	1000541e 	bne	r2,zero,1004a5c <button_table+0xfb0>
		{
			bit_pointer++;
 100490c:	d0a01817 	ldw	r2,-32672(gp)
 1004910:	10800044 	addi	r2,r2,1
 1004914:	d0a01815 	stw	r2,-32672(gp)
			bit_array[bit_pointer]=8;
 1004918:	d0e01817 	ldw	r3,-32672(gp)
 100491c:	008040b4 	movhi	r2,258
 1004920:	10967404 	addi	r2,r2,22992
 1004924:	18c7883a 	add	r3,r3,r3
 1004928:	18c7883a 	add	r3,r3,r3
 100492c:	10c5883a 	add	r2,r2,r3
 1004930:	00c00204 	movi	r3,8
 1004934:	10c00015 	stw	r3,0(r2)
			if(Range_w)
 1004938:	d0a01a17 	ldw	r2,-32664(gp)
 100493c:	10001126 	beq	r2,zero,1004984 <button_table+0xed8>
				lcdDispDecSmall(130+(bit_pointer*9), 425, BLACK, WHITE, bit_array[bit_pointer]);
 1004940:	d0a01817 	ldw	r2,-32672(gp)
 1004944:	10800264 	muli	r2,r2,9
 1004948:	10802084 	addi	r2,r2,130
 100494c:	113fffcc 	andi	r4,r2,65535
 1004950:	d0e01817 	ldw	r3,-32672(gp)
 1004954:	008040b4 	movhi	r2,258
 1004958:	10967404 	addi	r2,r2,22992
 100495c:	18c7883a 	add	r3,r3,r3
 1004960:	18c7883a 	add	r3,r3,r3
 1004964:	10c5883a 	add	r2,r2,r3
 1004968:	10800017 	ldw	r2,0(r2)
 100496c:	d8800015 	stw	r2,0(sp)
 1004970:	01ffffd4 	movui	r7,65535
 1004974:	000d883a 	mov	r6,zero
 1004978:	01406a44 	movi	r5,425
 100497c:	1002b180 	call	1002b18 <lcdDispDecSmall>
 1004980:	00003606 	br	1004a5c <button_table+0xfb0>
			else
				lcdDispDecSmall(130+(bit_pointer*9), 385, BLACK, WHITE, bit_array[bit_pointer]);
 1004984:	d0a01817 	ldw	r2,-32672(gp)
 1004988:	10800264 	muli	r2,r2,9
 100498c:	10802084 	addi	r2,r2,130
 1004990:	113fffcc 	andi	r4,r2,65535
 1004994:	d0e01817 	ldw	r3,-32672(gp)
 1004998:	008040b4 	movhi	r2,258
 100499c:	10967404 	addi	r2,r2,22992
 10049a0:	18c7883a 	add	r3,r3,r3
 10049a4:	18c7883a 	add	r3,r3,r3
 10049a8:	10c5883a 	add	r2,r2,r3
 10049ac:	10800017 	ldw	r2,0(r2)
 10049b0:	d8800015 	stw	r2,0(sp)
 10049b4:	01ffffd4 	movui	r7,65535
 10049b8:	000d883a 	mov	r6,zero
 10049bc:	01406044 	movi	r5,385
 10049c0:	1002b180 	call	1002b18 <lcdDispDecSmall>
 10049c4:	00002506 	br	1004a5c <button_table+0xfb0>
		}
		/*End*/
	}
	else if(touchResponse(Num_X+50, Num_X+100, Num_Y+100, Num_Y+150, page) == 0)
 10049c8:	d0a00117 	ldw	r2,-32764(gp)
 10049cc:	10c00c84 	addi	r3,r2,50
 10049d0:	d0a00117 	ldw	r2,-32764(gp)
 10049d4:	11001904 	addi	r4,r2,100
 10049d8:	d0a00217 	ldw	r2,-32760(gp)
 10049dc:	11401904 	addi	r5,r2,100
 10049e0:	d0a00217 	ldw	r2,-32760(gp)
 10049e4:	11802584 	addi	r6,r2,150
 10049e8:	e0bfff17 	ldw	r2,-4(fp)
 10049ec:	d8800015 	stw	r2,0(sp)
 10049f0:	300f883a 	mov	r7,r6
 10049f4:	280d883a 	mov	r6,r5
 10049f8:	200b883a 	mov	r5,r4
 10049fc:	1809883a 	mov	r4,r3
 1004a00:	10038940 	call	1003894 <touchResponse>
 1004a04:	1000151e 	bne	r2,zero,1004a5c <button_table+0xfb0>
	{
		lcddrawsqur(Num_X+50, Num_X+100, Num_Y+100, Num_Y+150, BLACK, "  8");
 1004a08:	d0a00117 	ldw	r2,-32764(gp)
 1004a0c:	10800c84 	addi	r2,r2,50
 1004a10:	10ffffcc 	andi	r3,r2,65535
 1004a14:	d0a00117 	ldw	r2,-32764(gp)
 1004a18:	10801904 	addi	r2,r2,100
 1004a1c:	113fffcc 	andi	r4,r2,65535
 1004a20:	d0a00217 	ldw	r2,-32760(gp)
 1004a24:	10801904 	addi	r2,r2,100
 1004a28:	117fffcc 	andi	r5,r2,65535
 1004a2c:	d0a00217 	ldw	r2,-32760(gp)
 1004a30:	10802584 	addi	r2,r2,150
 1004a34:	11bfffcc 	andi	r6,r2,65535
 1004a38:	008040b4 	movhi	r2,258
 1004a3c:	108e7104 	addi	r2,r2,14788
 1004a40:	d8800115 	stw	r2,4(sp)
 1004a44:	d8000015 	stw	zero,0(sp)
 1004a48:	300f883a 	mov	r7,r6
 1004a4c:	280d883a 	mov	r6,r5
 1004a50:	200b883a 	mov	r5,r4
 1004a54:	1809883a 	mov	r4,r3
 1004a58:	100352c0 	call	100352c <lcddrawsqur>
	}

	/****************** -9- *********************/
	if(touchResponse(Num_X+100, Num_X+150, Num_Y+100, Num_Y+150, page) == 1)
 1004a5c:	d0a00117 	ldw	r2,-32764(gp)
 1004a60:	10c01904 	addi	r3,r2,100
 1004a64:	d0a00117 	ldw	r2,-32764(gp)
 1004a68:	11002584 	addi	r4,r2,150
 1004a6c:	d0a00217 	ldw	r2,-32760(gp)
 1004a70:	11401904 	addi	r5,r2,100
 1004a74:	d0a00217 	ldw	r2,-32760(gp)
 1004a78:	11802584 	addi	r6,r2,150
 1004a7c:	e0bfff17 	ldw	r2,-4(fp)
 1004a80:	d8800015 	stw	r2,0(sp)
 1004a84:	300f883a 	mov	r7,r6
 1004a88:	280d883a 	mov	r6,r5
 1004a8c:	200b883a 	mov	r5,r4
 1004a90:	1809883a 	mov	r4,r3
 1004a94:	10038940 	call	1003894 <touchResponse>
 1004a98:	10800058 	cmpnei	r2,r2,1
 1004a9c:	1000491e 	bne	r2,zero,1004bc4 <button_table+0x1118>
	{
		/*Begin*/
		if((bit_pointer == 0) && (Range_w)){
 1004aa0:	d0a01817 	ldw	r2,-32672(gp)
 1004aa4:	10000a1e 	bne	r2,zero,1004ad0 <button_table+0x1024>
 1004aa8:	d0a01a17 	ldw	r2,-32664(gp)
 1004aac:	10000826 	beq	r2,zero,1004ad0 <button_table+0x1024>
			lcdRectClear(130, 425, 195, 437, BACKGROUND);
 1004ab0:	00bfffd4 	movui	r2,65535
 1004ab4:	d8800015 	stw	r2,0(sp)
 1004ab8:	01c06d44 	movi	r7,437
 1004abc:	018030c4 	movi	r6,195
 1004ac0:	01406a44 	movi	r5,425
 1004ac4:	01002084 	movi	r4,130
 1004ac8:	10019640 	call	1001964 <lcdRectClear>
 1004acc:	00000b06 	br	1004afc <button_table+0x1050>
		}
		else if((bit_pointer == 0) && (!Range_w)){
 1004ad0:	d0a01817 	ldw	r2,-32672(gp)
 1004ad4:	1000091e 	bne	r2,zero,1004afc <button_table+0x1050>
 1004ad8:	d0a01a17 	ldw	r2,-32664(gp)
 1004adc:	1000071e 	bne	r2,zero,1004afc <button_table+0x1050>
			lcdRectClear(130, 385, 195, 397, BACKGROUND);
 1004ae0:	00bfffd4 	movui	r2,65535
 1004ae4:	d8800015 	stw	r2,0(sp)
 1004ae8:	01c06344 	movi	r7,397
 1004aec:	018030c4 	movi	r6,195
 1004af0:	01406044 	movi	r5,385
 1004af4:	01002084 	movi	r4,130
 1004af8:	10019640 	call	1001964 <lcdRectClear>
		}

		if(bit_pointer <= bit_length-1)
 1004afc:	d0a01817 	ldw	r2,-32672(gp)
 1004b00:	10800288 	cmpgei	r2,r2,10
 1004b04:	1000541e 	bne	r2,zero,1004c58 <button_table+0x11ac>
		{
			bit_pointer++;
 1004b08:	d0a01817 	ldw	r2,-32672(gp)
 1004b0c:	10800044 	addi	r2,r2,1
 1004b10:	d0a01815 	stw	r2,-32672(gp)
			bit_array[bit_pointer]=9;
